Component: ARM Compiler 5.05 update 1 (build 106) Tool: armlink [4d0efa]

==============================================================================

Section Cross References

    system_stm32f4xx.o(.text) refers to system_stm32f4xx.o(.data) for SystemCoreClock
    main.o(.text) refers to lcd.o(.text) for LCD_Clear
    main.o(.text) refers to window.o(.text) for window_msg_box
    main.o(.text) refers to delay.o(.text) for delay_ms
    main.o(.text) refers to os_mbox.o(.text) for OSMboxCreate
    main.o(.text) refers to os_core.o(.text) for OSStatInit
    main.o(.text) refers to os_cpu_a.o(.text) for OS_CPU_SR_Save
    main.o(.text) refers to os_task.o(.text) for OSTaskCreate
    main.o(.text) refers to misc.o(.text) for NVIC_PriorityGroupConfig
    main.o(.text) refers to usart.o(.text) for uart_init
    main.o(.text) refers to key.o(.text) for KEY_Init
    main.o(.text) refers to gui.o(.text) for gui_init
    main.o(.text) refers to malloc.o(.text) for my_mem_init
    main.o(.text) refers to exfuns.o(.text) for exfuns_init
    main.o(.text) refers to ff.o(.text) for f_mount
    main.o(.text) refers to w25qxx.o(.text) for W25QXX_Init
    main.o(.text) refers to wm8978.o(.text) for WM8978_Init
    main.o(.text) refers to sram.o(.text) for FSMC_SRAM_Init
    main.o(.text) refers to timer.o(.text) for TIM3_Int_Init
    main.o(.text) refers to fontupd.o(.text) for font_init
    main.o(.text) refers to videoplayer.o(.text) for video_play
    main.o(.text) refers to fattester.o(.text) for file_manage
    main.o(.text) refers to main.o(.data) for msg_key
    main.o(.text) refers to main.o(.bss) for MAIN_TASK_STK
    main.o(.text) refers to touch.o(.data) for tp_dev
    main.o(.text) refers to exfuns.o(.bss) for fs
    main.o(.text) refers to lcd.o(.data) for POINT_COLOR
    led.o(.text) refers to stm32f4xx_rcc.o(.text) for RCC_AHB1PeriphClockCmd
    led.o(.text) refers to stm32f4xx_gpio.o(.text) for GPIO_Init
    lcd.o(.text) refers to malloc.o(.text) for mymalloc
    lcd.o(.text) refers to ff.o(.text) for f_opendir
    lcd.o(.text) refers to text.o(.text) for Show_Str
    lcd.o(.text) refers to delay.o(.text) for delay_ms
    lcd.o(.text) refers to lcd.o(.bss) for lcddev
    lcd.o(.text) refers to exfuns.o(.text) for f_typetell
    lcd.o(.text) refers to piclib.o(.text) for piclib_init
    lcd.o(.text) refers to strcpy.o(.text) for strcpy
    lcd.o(.text) refers to strcat.o(.text) for strcat
    lcd.o(.text) refers to dfltui.o(.text) for __aeabi_ui2d
    lcd.o(.text) refers to dmul.o(.text) for __aeabi_dmul
    lcd.o(.text) refers to dfixui.o(.text) for __aeabi_d2uiz
    lcd.o(.text) refers to lcd.o(.data) for POINT_COLOR
    lcd.o(.text) refers to stm32f4xx_rcc.o(.text) for RCC_AHB1PeriphClockCmd
    lcd.o(.text) refers to stm32f4xx_gpio.o(.text) for GPIO_Init
    lcd.o(.text) refers to stm32f4xx_fsmc.o(.text) for FSMC_NORSRAMInit
    lcd.o(.text) refers to printf8.o(i.__0printf$8) for __2printf
    lcd.o(.text) refers to lcd.o(.constdata) for asc2_1206
    key.o(.text) refers to stm32f4xx_rcc.o(.text) for RCC_AHB1PeriphClockCmd
    key.o(.text) refers to stm32f4xx_gpio.o(.text) for GPIO_Init
    key.o(.text) refers to delay.o(.text) for delay_ms
    key.o(.text) refers to key.o(.data) for key_up
    spi.o(.text) refers to stm32f4xx_spi.o(.text) for SPI_I2S_GetFlagStatus
    spi.o(.text) refers to stm32f4xx_rcc.o(.text) for RCC_AHB1PeriphClockCmd
    spi.o(.text) refers to stm32f4xx_gpio.o(.text) for GPIO_Init
    w25qxx.o(.text) refers to spi.o(.text) for SPI1_ReadWriteByte
    w25qxx.o(.text) refers to stm32f4xx_rcc.o(.text) for RCC_AHB1PeriphClockCmd
    w25qxx.o(.text) refers to stm32f4xx_gpio.o(.text) for GPIO_Init
    w25qxx.o(.text) refers to printf8.o(i.__0printf$8) for __2printf
    w25qxx.o(.text) refers to delay.o(.text) for delay_us
    w25qxx.o(.text) refers to w25qxx.o(.data) for W25QXX_TYPE
    w25qxx.o(.text) refers to w25qxx.o(.bss) for W25QXX_BUFFER
    sdio_sdcard.o(.text) refers to stm32f4xx_sdio.o(.text) for SDIO_GetFlagStatus
    sdio_sdcard.o(.text) refers to sdio_sdcard.o(.data) for DeviceMode
    sdio_sdcard.o(.text) refers to sdio_sdcard.o(.bss) for SDIO_CmdInitStructure
    sdio_sdcard.o(.text) refers to stm32f4xx_rcc.o(.text) for RCC_AHB1PeriphClockCmd
    sdio_sdcard.o(.text) refers to stm32f4xx_gpio.o(.text) for GPIO_Init
    sdio_sdcard.o(.text) refers to misc.o(.text) for NVIC_Init
    sdio_sdcard.o(.text) refers to stm32f4xx_dma.o(.text) for DMA_GetCmdStatus
    sdio_sdcard.o(.text) refers to sys.o(.emb_text) for INTX_DISABLE
    sdio_sdcard.o(.text) refers to memcpya.o(.text) for __aeabi_memcpy
    myiic.o(.text) refers to stm32f4xx_rcc.o(.text) for RCC_AHB1PeriphClockCmd
    myiic.o(.text) refers to stm32f4xx_gpio.o(.text) for GPIO_Init
    myiic.o(.text) refers to delay.o(.text) for delay_us
    24cxx.o(.text) refers to myiic.o(.text) for IIC_Init
    24cxx.o(.text) refers to delay.o(.text) for delay_ms
    i2s.o(.text) refers to stm32f4xx_rcc.o(.text) for RCC_APB1PeriphClockCmd
    i2s.o(.text) refers to stm32f4xx_spi.o(.text) for I2S_Init
    i2s.o(.text) refers to stm32f4xx_dma.o(.text) for DMA_DeInit
    i2s.o(.text) refers to misc.o(.text) for NVIC_Init
    i2s.o(.text) refers to i2s.o(.constdata) for I2S_PSC_TBL
    i2s.o(.text) refers to i2s.o(.data) for i2s_tx_callback
    wm8978.o(.text) refers to myiic.o(.text) for IIC_Start
    wm8978.o(.text) refers to stm32f4xx_rcc.o(.text) for RCC_AHB1PeriphClockCmd
    wm8978.o(.text) refers to stm32f4xx_gpio.o(.text) for GPIO_Init
    wm8978.o(.text) refers to wm8978.o(.data) for WM8978_REGVAL_TBL
    timer.o(.text) refers to stm32f4xx_rcc.o(.text) for RCC_APB1PeriphClockCmd
    timer.o(.text) refers to stm32f4xx_tim.o(.text) for TIM_TimeBaseInit
    timer.o(.text) refers to misc.o(.text) for NVIC_Init
    timer.o(.text) refers to printf8.o(i.__0printf$8) for __2printf
    timer.o(.text) refers to timer.o(.data) for frame
    ctiic.o(.text) refers to delay.o(.text) for delay_us
    ctiic.o(.text) refers to stm32f4xx_rcc.o(.text) for RCC_AHB1PeriphClockCmd
    ctiic.o(.text) refers to stm32f4xx_gpio.o(.text) for GPIO_Init
    ft5206.o(.text) refers to ctiic.o(.text) for CT_IIC_Start
    ft5206.o(.text) refers to stm32f4xx_rcc.o(.text) for RCC_AHB1PeriphClockCmd
    ft5206.o(.text) refers to stm32f4xx_gpio.o(.text) for GPIO_Init
    ft5206.o(.text) refers to delay.o(.text) for delay_ms
    ft5206.o(.text) refers to printf8.o(i.__0printf$8) for __2printf
    ft5206.o(.text) refers to ft5206.o(.data) for t
    ft5206.o(.text) refers to touch.o(.data) for tp_dev
    ft5206.o(.text) refers to ft5206.o(.constdata) for FT5206_TPX_TBL
    gt9147.o(.text) refers to ctiic.o(.text) for CT_IIC_Start
    gt9147.o(.text) refers to stm32f4xx_rcc.o(.text) for RCC_AHB1PeriphClockCmd
    gt9147.o(.text) refers to stm32f4xx_gpio.o(.text) for GPIO_Init
    gt9147.o(.text) refers to delay.o(.text) for delay_ms
    gt9147.o(.text) refers to printf8.o(i.__0printf$8) for __2printf
    gt9147.o(.text) refers to strcmp.o(.text) for strcmp
    gt9147.o(.text) refers to gt9147.o(.constdata) for GT9147_CFG_TBL
    gt9147.o(.text) refers to gt9147.o(.data) for t
    gt9147.o(.text) refers to touch.o(.data) for tp_dev
    gt9147.o(.text) refers to lcd.o(.bss) for lcddev
    ott2001a.o(.text) refers to ctiic.o(.text) for CT_IIC_Start
    ott2001a.o(.text) refers to stm32f4xx_rcc.o(.text) for RCC_AHB1PeriphClockCmd
    ott2001a.o(.text) refers to stm32f4xx_gpio.o(.text) for GPIO_Init
    ott2001a.o(.text) refers to delay.o(.text) for delay_ms
    ott2001a.o(.text) refers to printf8.o(i.__0printf$8) for __2printf
    ott2001a.o(.text) refers to dflti.o(.text) for __aeabi_i2d
    ott2001a.o(.text) refers to dmul.o(.text) for __aeabi_dmul
    ott2001a.o(.text) refers to dfixui.o(.text) for __aeabi_d2uiz
    ott2001a.o(.text) refers to dadd.o(.text) for __aeabi_drsub
    ott2001a.o(.text) refers to ott2001a.o(.data) for t
    ott2001a.o(.text) refers to touch.o(.data) for tp_dev
    ott2001a.o(.text) refers to ott2001a.o(.constdata) for OTT_TPX_TBL
    touch.o(.text) refers to delay.o(.text) for delay_us
    touch.o(.text) refers to lcd.o(.text) for LCD_DrawLine
    touch.o(.text) refers to touch.o(.data) for tp_dev
    touch.o(.text) refers to lcd.o(.bss) for lcddev
    touch.o(.text) refers to lcd.o(.data) for POINT_COLOR
    touch.o(.text) refers to 24cxx.o(.text) for AT24CXX_WriteLenByte
    touch.o(.text) refers to dfltui.o(.text) for __aeabi_ui2d
    touch.o(.text) refers to sqrt.o(i.__hardfp_sqrt) for __hardfp_sqrt
    touch.o(.text) refers to dfixui.o(.text) for __aeabi_d2uiz
    touch.o(.text) refers to touch.o(.constdata) for TP_REMIND_MSG_TBL
    touch.o(.text) refers to f2d.o(.text) for __aeabi_f2d
    touch.o(.text) refers to cdcmple.o(.text) for __aeabi_cdcmple
    touch.o(.text) refers to cdrcmple.o(.text) for __aeabi_cdrcmple
    touch.o(.text) refers to dmul.o(.text) for __aeabi_dmul
    touch.o(.text) refers to gt9147.o(.text) for GT9147_Init
    touch.o(.text) refers to ott2001a.o(.text) for OTT2001A_Init
    touch.o(.text) refers to ft5206.o(.text) for FT5206_Init
    touch.o(.text) refers to stm32f4xx_rcc.o(.text) for RCC_AHB1PeriphClockCmd
    touch.o(.text) refers to stm32f4xx_gpio.o(.text) for GPIO_Init
    touch.o(.constdata) refers to touch.o(.conststring) for .conststring
    touch.o(.data) refers to touch.o(.text) for TP_Init
    sram.o(.text) refers to stm32f4xx_rcc.o(.text) for RCC_AHB1PeriphClockCmd
    sram.o(.text) refers to stm32f4xx_gpio.o(.text) for GPIO_Init
    sram.o(.text) refers to stm32f4xx_fsmc.o(.text) for FSMC_NORSRAMInit
    delay.o(.text) refers to os_core.o(.text) for OSSchedLock
    delay.o(.text) refers to os_time.o(.text) for OSTimeDly
    delay.o(.text) refers to misc.o(.text) for SysTick_CLKSourceConfig
    delay.o(.text) refers to os_core.o(.data) for OSRunning
    delay.o(.text) refers to delay.o(.data) for fac_us
    usart.o(.text) refers to stm32f4xx_rcc.o(.text) for RCC_AHB1PeriphClockCmd
    usart.o(.text) refers to stm32f4xx_gpio.o(.text) for GPIO_PinAFConfig
    usart.o(.text) refers to stm32f4xx_usart.o(.text) for USART_Init
    usart.o(.text) refers to misc.o(.text) for NVIC_Init
    usart.o(.text) refers to os_core.o(.text) for OSIntEnter
    usart.o(.text) refers to usart.o(.data) for USART_RX_STA
    usart.o(.text) refers to usart.o(.bss) for USART_RX_BUF
    startup_stm32f40_41xxx.o(RESET) refers to startup_stm32f40_41xxx.o(STACK) for __initial_sp
    startup_stm32f40_41xxx.o(RESET) refers to startup_stm32f40_41xxx.o(.text) for Reset_Handler
    startup_stm32f40_41xxx.o(RESET) refers to stm32f4xx_it.o(.text) for NMI_Handler
    startup_stm32f40_41xxx.o(RESET) refers to os_cpu_a.o(.text) for PendSV_Handler
    startup_stm32f40_41xxx.o(RESET) refers to delay.o(.text) for SysTick_Handler
    startup_stm32f40_41xxx.o(RESET) refers to i2s.o(.text) for DMA1_Stream3_IRQHandler
    startup_stm32f40_41xxx.o(RESET) refers to timer.o(.text) for TIM3_IRQHandler
    startup_stm32f40_41xxx.o(RESET) refers to usmart.o(.text) for TIM4_IRQHandler
    startup_stm32f40_41xxx.o(RESET) refers to usart.o(.text) for USART1_IRQHandler
    startup_stm32f40_41xxx.o(RESET) refers to sdio_sdcard.o(.text) for SDIO_IRQHandler
    startup_stm32f40_41xxx.o(.text) refers to system_stm32f4xx.o(.text) for SystemInit
    startup_stm32f40_41xxx.o(.text) refers to entry.o(.ARM.Collect$$$$00000000) for __main
    stm32f4xx_gpio.o(.text) refers to stm32f4xx_rcc.o(.text) for RCC_AHB1PeriphResetCmd
    stm32f4xx_fsmc.o(.text) refers to stm32f4xx_fsmc.o(.constdata) for FSMC_DefaultTimingStruct
    stm32f4xx_rcc.o(.text) refers to stm32f4xx_rcc.o(.data) for APBAHBPrescTable
    stm32f4xx_usart.o(.text) refers to stm32f4xx_rcc.o(.text) for RCC_APB2PeriphResetCmd
    stm32f4xx_tim.o(.text) refers to stm32f4xx_rcc.o(.text) for RCC_APB2PeriphResetCmd
    stm32f4xx_syscfg.o(.text) refers to stm32f4xx_rcc.o(.text) for RCC_APB2PeriphResetCmd
    stm32f4xx_spi.o(.text) refers to stm32f4xx_rcc.o(.text) for RCC_APB2PeriphResetCmd
    stm32f4xx_sdio.o(.text) refers to stm32f4xx_rcc.o(.text) for RCC_APB2PeriphResetCmd
    malloc.o(.text) refers to os_cpu_a.o(.text) for OS_CPU_SR_Save
    malloc.o(.text) refers to malloc.o(.constdata) for memtblsize
    malloc.o(.text) refers to malloc.o(.data) for mallco_dev
    malloc.o(.data) refers to malloc.o(.text) for my_mem_init
    malloc.o(.data) refers to malloc.o(.bss) for mem1base
    malloc.o(.data) refers to malloc.o(.ARM.__AT_0x68000000) for mem2base
    malloc.o(.data) refers to malloc.o(.ARM.__AT_0x10000000) for mem3base
    malloc.o(.data) refers to malloc.o(.ARM.__AT_0x680F0000) for mem2mapbase
    malloc.o(.data) refers to malloc.o(.ARM.__AT_0x1000F000) for mem3mapbase
    usmart.o(.text) refers to usmart_str.o(.text) for usmart_get_cmdname
    usmart.o(.text) refers to printf8.o(i.__0printf$8) for __2printf
    usmart.o(.text) refers to usmart.o(.data) for sys_cmd_tab
    usmart.o(.text) refers to usmart_config.o(.data) for usmart_dev
    usmart.o(.text) refers to stm32f4xx_tim.o(.text) for TIM_ClearFlag
    usmart.o(.text) refers to stm32f4xx_rcc.o(.text) for RCC_APB1PeriphClockCmd
    usmart.o(.text) refers to misc.o(.text) for NVIC_Init
    usmart.o(.text) refers to usart.o(.data) for USART_RX_STA
    usmart.o(.text) refers to usart.o(.bss) for USART_RX_BUF
    usmart.o(.data) refers to usmart.o(.conststring) for .conststring
    usmart_config.o(.data) refers to usmart.o(.text) for read_addr
    usmart_config.o(.data) refers to usmart_config.o(.conststring) for .conststring
    usmart_config.o(.data) refers to delay.o(.text) for delay_ms
    usmart_config.o(.data) refers to wm8978.o(.text) for WM8978_Write_Reg
    usmart_str.o(.text) refers to usmart_config.o(.data) for usmart_dev
    diskio.o(.text) refers to sdio_sdcard.o(.text) for SD_Init
    diskio.o(.text) refers to w25qxx.o(.text) for W25QXX_Init
    diskio.o(.text) refers to ldiv.o(.text) for __aeabi_ldivmod
    diskio.o(.text) refers to malloc.o(.text) for mymalloc
    diskio.o(.text) refers to diskio.o(.data) for FLASH_SECTOR_COUNT
    diskio.o(.text) refers to sdio_sdcard.o(.bss) for SDCardInfo
    ff.o(.text) refers to diskio.o(.text) for disk_write
    ff.o(.text) refers to mycc936.o(.text) for ff_wtoupper
    ff.o(.text) refers to ff.o(.constdata) for LfnOfs
    ff.o(.text) refers to ff.o(.bss) for FatFs
    ff.o(.text) refers to ff.o(.data) for Fsid
    exfuns.o(.text) refers to malloc.o(.text) for mymalloc
    exfuns.o(.text) refers to strcpy.o(.text) for strcpy
    exfuns.o(.text) refers to strcmp.o(.text) for strcmp
    exfuns.o(.text) refers to ff.o(.text) for f_getfree
    exfuns.o(.text) refers to exfuns.o(.bss) for fs
    exfuns.o(.text) refers to exfuns.o(.data) for file
    exfuns.o(.text) refers to exfuns.o(.constdata) for FILE_TYPE_TBL
    exfuns.o(.constdata) refers to exfuns.o(.conststring) for .conststring
    fattester.o(.text) refers to ff.o(.text) for f_mount
    fattester.o(.text) refers to printf8.o(i.__0printf$8) for __2printf
    fattester.o(.text) refers to malloc.o(.text) for mymalloc
    fattester.o(.text) refers to text.o(.text) for Show_Str
    fattester.o(.text) refers to exfuns.o(.bss) for fs
    fattester.o(.text) refers to exfuns.o(.data) for file
    fattester.o(.text) refers to delay.o(.text) for delay_ms
    fattester.o(.text) refers to strcpy.o(.text) for strcpy
    fattester.o(.text) refers to strcat.o(.text) for strcat
    fattester.o(.text) refers to lcd.o(.text) for LCD_Clear
    fattester.o(.text) refers to touch.o(.data) for tp_dev
    fattester.o(.text) refers to lcd.o(.data) for POINT_COLOR
    mycc936.o(.text) refers to w25qxx.o(.text) for W25QXX_Read
    mycc936.o(.text) refers to fontupd.o(.bss) for ftinfo
    mycc936.o(.text) refers to mycc936.o(.constdata) for tbl_lower
    fontupd.o(.text) refers to lcd.o(.text) for LCD_ShowString
    fontupd.o(.text) refers to malloc.o(.text) for mymalloc
    fontupd.o(.text) refers to ff.o(.text) for f_open
    fontupd.o(.text) refers to w25qxx.o(.text) for W25QXX_Write
    fontupd.o(.text) refers to strcpy.o(.text) for strcpy
    fontupd.o(.text) refers to strcat.o(.text) for strcat
    fontupd.o(.text) refers to fontupd.o(.bss) for ftinfo
    fontupd.o(.text) refers to fontupd.o(.constdata) for UNIGBK_PATH
    fontupd.o(.text) refers to delay.o(.text) for delay_ms
    fontupd.o(.constdata) refers to fontupd.o(.conststring) for .conststring
    text.o(.text) refers to w25qxx.o(.text) for W25QXX_Read
    text.o(.text) refers to lcd.o(.text) for LCD_Fast_DrawPoint
    text.o(.text) refers to strlen.o(.text) for strlen
    text.o(.text) refers to fontupd.o(.bss) for ftinfo
    text.o(.text) refers to lcd.o(.data) for POINT_COLOR
    text.o(.text) refers to lcd.o(.bss) for lcddev
    wavplay.o(.text) refers to malloc.o(.text) for mymalloc
    wavplay.o(.text) refers to ff.o(.text) for f_open
    wavplay.o(.text) refers to printf8.o(i.__0printf$8) for __2printf
    wavplay.o(.text) refers to ldiv.o(.text) for __aeabi_ldivmod
    wavplay.o(.text) refers to wm8978.o(.text) for WM8978_I2S_Cfg
    wavplay.o(.text) refers to i2s.o(.text) for I2S2_Init
    wavplay.o(.text) refers to audioplay.o(.text) for audio_stop
    wavplay.o(.text) refers to key.o(.text) for KEY_Scan
    wavplay.o(.text) refers to audioplay.o(.bss) for audiodev
    wavplay.o(.text) refers to wavplay.o(.data) for wavwitchbuf
    wavplay.o(.text) refers to wavplay.o(.bss) for wavctrl
    wavplay.o(.text) refers to i2s.o(.data) for i2s_tx_callback
    wavplay.o(.text) refers to delay.o(.text) for delay_ms
    audioplay.o(.text) refers to i2s.o(.text) for I2S_Play_Start
    audioplay.o(.text) refers to ff.o(.text) for f_opendir
    audioplay.o(.text) refers to malloc.o(.text) for mymalloc
    audioplay.o(.text) refers to exfuns.o(.text) for f_typetell
    audioplay.o(.text) refers to lcd.o(.text) for LCD_ShowxNum
    audioplay.o(.text) refers to wavplay.o(.text) for wav_play_song
    audioplay.o(.text) refers to printf8.o(i.__0printf$8) for __2printf
    audioplay.o(.text) refers to wm8978.o(.text) for WM8978_ADDA_Cfg
    audioplay.o(.text) refers to text.o(.text) for Show_Str
    audioplay.o(.text) refers to delay.o(.text) for delay_ms
    audioplay.o(.text) refers to strcpy.o(.text) for strcpy
    audioplay.o(.text) refers to strcat.o(.text) for strcat
    audioplay.o(.text) refers to audioplay.o(.bss) for audiodev
    audioplay.o(.text) refers to audioplay.o(.data) for playtime
    videoplayer.o(.text) refers to stm32f4xx_dma.o(.text) for DMA_MemoryTargetConfig
    videoplayer.o(.text) refers to ff.o(.text) for f_opendir
    videoplayer.o(.text) refers to malloc.o(.text) for mymalloc
    videoplayer.o(.text) refers to exfuns.o(.text) for f_typetell
    videoplayer.o(.text) refers to dfltui.o(.text) for __aeabi_ui2d
    videoplayer.o(.text) refers to ddiv.o(.text) for __aeabi_ddiv
    videoplayer.o(.text) refers to dmul.o(.text) for __aeabi_dmul
    videoplayer.o(.text) refers to dfixui.o(.text) for __aeabi_d2uiz
    videoplayer.o(.text) refers to printf8.o(i.__0sprintf$8) for __2sprintf
    videoplayer.o(.text) refers to text.o(.text) for Show_Str
    videoplayer.o(.text) refers to os_cpu_a.o(.text) for OS_CPU_SR_Save
    videoplayer.o(.text) refers to memseta.o(.text) for __aeabi_memclr
    videoplayer.o(.text) refers to printf8.o(i.__0printf$8) for __2printf
    videoplayer.o(.text) refers to avi.o(.text) for avi_init
    videoplayer.o(.text) refers to videoplayer.o(.data) for i2splaybuf
    videoplayer.o(.text) refers to videoplayer.o(.bss) for i2sbuf
    videoplayer.o(.text) refers to lcd.o(.data) for POINT_COLOR
    videoplayer.o(.text) refers to lcd.o(.bss) for lcddev
    videoplayer.o(.text) refers to lcd.o(.text) for LCD_ShowPlayerPic
    videoplayer.o(.text) refers to touch.o(.text) for TP_Scan
    videoplayer.o(.text) refers to delay.o(.text) for delay_ms
    videoplayer.o(.text) refers to timer.o(.text) for TIM6_Int_Init
    videoplayer.o(.text) refers to mjpeg.o(.text) for mjpegdec_init
    videoplayer.o(.text) refers to wm8978.o(.text) for WM8978_I2S_Cfg
    videoplayer.o(.text) refers to i2s.o(.text) for I2S2_Init
    videoplayer.o(.text) refers to avi.o(.bss) for avix
    videoplayer.o(.text) refers to touch.o(.data) for tp_dev
    videoplayer.o(.text) refers to i2s.o(.data) for i2s_tx_callback
    videoplayer.o(.text) refers to timer.o(.data) for frameup
    videoplayer.o(.text) refers to strcpy.o(.text) for strcpy
    videoplayer.o(.text) refers to strcat.o(.text) for strcat
    videoplayer.o(.text) refers to key.o(.text) for KEY_Scan
    avi.o(.text) refers to printf8.o(i.__0printf$8) for __2printf
    avi.o(.text) refers to avi.o(.bss) for avix
    avi.o(.text) refers to avi.o(.constdata) for AVI_VIDS_FLAG_TBL
    avi.o(.constdata) refers to avi.o(.conststring) for .conststring
    mjpeg.o(.text) refers to printf8.o(i.__0printf$8) for __2printf
    mjpeg.o(.text) refers to setjmp.o(.text) for longjmp
    mjpeg.o(.text) refers to malloc.o(.text) for myfree
    mjpeg.o(.text) refers to jerror.o(.text) for jpeg_std_error
    mjpeg.o(.text) refers to jdapimin.o(.text) for jpeg_abort_decompress
    mjpeg.o(.text) refers to jdapistd.o(.text) for jpeg_start_decompress
    mjpeg.o(.text) refers to lcd.o(.text) for LCD_Set_Window
    mjpeg.o(.text) refers to mjpeg.o(.data) for jmempos
    mjpeg.o(.text) refers to jdmarker.o(.text) for jpeg_resync_to_restart
    jutils.o(.text) refers to memcpya.o(.text) for __aeabi_memcpy
    jerror.o(.text) refers to jcomapi.o(.text) for jpeg_destroy
    jerror.o(.text) refers to printf8.o(i.__0printf$8) for __2printf
    jerror.o(.text) refers to printf8.o(i.__0sprintf$8) for __2sprintf
    jerror.o(.text) refers to jerror.o(.constdata) for jpeg_std_message_table
    jerror.o(.constdata) refers to jerror.o(.conststring) for .conststring
    jmemmgr.o(.text) refers to _scanf_int.o(.text) for _scanf_int
    jmemmgr.o(.text) refers to _scanf_str.o(.text) for _scanf_string
    jmemmgr.o(.text) refers to jmemnobs.o(.text) for jpeg_get_small
    jmemmgr.o(.text) refers to jmemmgr.o(.constdata) for first_pool_slop
    jmemmgr.o(.text) refers to memseta.o(.text) for __aeabi_memclr
    jmemmgr.o(.text) refers to __0sscanf.o(.text) for __0sscanf
    jdapimin.o(.text) refers to memseta.o(.text) for __aeabi_memclr4
    jdapimin.o(.text) refers to jmemmgr.o(.text) for jinit_memory_mgr
    jdapimin.o(.text) refers to jdmarker.o(.text) for jinit_marker_reader
    jdapimin.o(.text) refers to jdinput.o(.text) for jinit_input_controller
    jdapimin.o(.text) refers to jcomapi.o(.text) for jpeg_destroy
    jdapistd.o(.text) refers to jdmaster.o(.text) for jinit_master_decompress
    jdarith.o(.text) refers to memseta.o(.text) for __aeabi_memclr
    jdarith.o(.text) refers to jaricom.o(.constdata) for jpeg_aritab
    jdmaster.o(.text) refers to jdinput.o(.text) for jpeg_core_output_dimensions
    jdmaster.o(.text) refers to jutils.o(.text) for jdiv_round_up
    jdmaster.o(.text) refers to memseta.o(.text) for __aeabi_memclr
    jdmaster.o(.text) refers to memcpya.o(.text) for __aeabi_memcpy
    jdmaster.o(.text) refers to jquant1.o(.text) for jinit_1pass_quantizer
    jdmaster.o(.text) refers to jquant2.o(.text) for jinit_2pass_quantizer
    jdmaster.o(.text) refers to jdmerge.o(.text) for jinit_merged_upsampler
    jdmaster.o(.text) refers to jdcolor.o(.text) for jinit_color_deconverter
    jdmaster.o(.text) refers to jdsample.o(.text) for jinit_upsampler
    jdmaster.o(.text) refers to jdpostct.o(.text) for jinit_d_post_controller
    jdmaster.o(.text) refers to jddctmgr.o(.text) for jinit_inverse_dct
    jdmaster.o(.text) refers to jdarith.o(.text) for jinit_arith_decoder
    jdmaster.o(.text) refers to jdhuff.o(.text) for jinit_huff_decoder
    jdmaster.o(.text) refers to jdcoefct.o(.text) for jinit_d_coef_controller
    jdmaster.o(.text) refers to jdmainct.o(.text) for jinit_d_main_controller
    jdinput.o(.text) refers to jutils.o(.text) for jdiv_round_up
    jdinput.o(.text) refers to jutils.o(.constdata) for jpeg_natural_order
    jdinput.o(.text) refers to memcpya.o(.text) for __aeabi_memcpy
    jdmarker.o(.text) refers to strncpy.o(.text) for strncpy
    jdmarker.o(.text) refers to memseta.o(.text) for __aeabi_memclr4
    jdmarker.o(.text) refers to jcomapi.o(.text) for jpeg_alloc_huff_table
    jdmarker.o(.text) refers to memcpya.o(.text) for __aeabi_memcpy
    jdmarker.o(.text) refers to jutils.o(.constdata) for jpeg_natural_order2
    jdhuff.o(.text) refers to memseta.o(.text) for __aeabi_memclr4
    jdhuff.o(.text) refers to memcpya.o(.text) for __aeabi_memcpy4
    jdhuff.o(.text) refers to jdhuff.o(.constdata) for bmask
    jdhuff.o(.text) refers to jutils.o(.constdata) for jpeg_natural_order
    jdcoefct.o(.text) refers to jutils.o(.text) for jcopy_block_row
    jdcoefct.o(.text) refers to memseta.o(.text) for __aeabi_memclr
    jdpostct.o(.text) refers to jutils.o(.text) for jround_up
    jddctmgr.o(.text) refers to dfltui.o(.text) for __aeabi_ui2d
    jddctmgr.o(.text) refers to dmul.o(.text) for __aeabi_dmul
    jddctmgr.o(.text) refers to d2f.o(.text) for __aeabi_d2f
    jddctmgr.o(.text) refers to memseta.o(.text) for __aeabi_memclr
    jddctmgr.o(.text) refers to jidctint.o(.text) for jpeg_idct_1x1
    jddctmgr.o(.text) refers to jidctfst.o(.text) for jpeg_idct_ifast
    jddctmgr.o(.text) refers to jidctflt.o(.text) for jpeg_idct_float
    jddctmgr.o(.text) refers to jddctmgr.o(.constdata) for aanscales
    jdsample.o(.text) refers to jutils.o(.text) for jcopy_sample_rows
    jdcolor.o(.text) refers to memseta.o(.text) for __aeabi_memclr
    jdcolor.o(.text) refers to jutils.o(.text) for jcopy_sample_rows
    jquant2.o(.text) refers to memseta.o(.text) for __aeabi_memclr
    jquant1.o(.text) refers to jquant1.o(.constdata) for RGB_order
    jquant1.o(.text) refers to memseta.o(.text) for __aeabi_memclr
    jmemnobs.o(.text) refers to mjpeg.o(.text) for mjpeg_malloc
    wrppm.o(.text) refers to fwrite.o(i.fwrite) for fwrite
    wrppm.o(.text) refers to jdmaster.o(.text) for jpeg_calc_output_dimensions
    bmp.o(.text) refers to piclib.o(.text) for pic_memalloc
    bmp.o(.text) refers to ff.o(.text) for f_open
    bmp.o(.text) refers to piclib.o(.bss) for picinfo
    bmp.o(.text) refers to malloc.o(.text) for mymemset
    bmp.o(.text) refers to lcd.o(.text) for LCD_ReadPoint
    bmp.o(.text) refers to lcd.o(.bss) for lcddev
    bmp.o(.text) refers to exfuns.o(.data) for bw
    gif.o(.text) refers to ff.o(.text) for f_read
    gif.o(.text) refers to malloc.o(.text) for mymemset
    gif.o(.text) refers to gif.o(.constdata) for _aMaskTbl
    gif.o(.text) refers to piclib.o(.bss) for pic_phy
    gif.o(.text) refers to piclib.o(.text) for pic_memalloc
    gif.o(.text) refers to delay.o(.text) for delay_ms
    gif.o(.text) refers to gif.o(.data) for gifdecoding
    piclib.o(.text) refers to lcd.o(.text) for LCD_Fill
    piclib.o(.text) refers to exfuns.o(.text) for f_typetell
    piclib.o(.text) refers to bmp.o(.text) for stdbmp_decode
    piclib.o(.text) refers to tjpgd.o(.text) for jpg_decode
    piclib.o(.text) refers to gif.o(.text) for gif_decode
    piclib.o(.text) refers to malloc.o(.text) for mymalloc
    piclib.o(.text) refers to lcd.o(.bss) for lcddev
    piclib.o(.text) refers to piclib.o(.bss) for pic_phy
    tjpgd.o(.text) refers to tjpgd.o(.constdata) for Zig
    tjpgd.o(.text) refers to piclib.o(.text) for pic_memalloc
    tjpgd.o(.text) refers to ff.o(.text) for f_read
    tjpgd.o(.text) refers to tjpgd.o(.data) for f_jpeg
    tjpgd.o(.text) refers to piclib.o(.bss) for picinfo
    os_core.o(.text) refers to os_task.o(.text) for OSTaskStkChk
    os_core.o(.text) refers to os_time.o(.text) for OSTimeDly
    os_core.o(.text) refers to os_cpu_a.o(.text) for OS_CPU_SR_Save
    os_core.o(.text) refers to os_cpu_c.o(.text) for OSTaskStatHook
    os_core.o(.text) refers to os_flag.o(.text) for OS_FlagInit
    os_core.o(.text) refers to os_q.o(.text) for OS_QInit
    os_core.o(.text) refers to os_core.o(.bss) for OSTCBPrioTbl
    os_core.o(.text) refers to os_core.o(.data) for OSStatRdy
    os_core.o(.text) refers to os_core.o(.constdata) for OSUnMapTbl
    os_flag.o(.text) refers to os_cpu_a.o(.text) for OS_CPU_SR_Save
    os_flag.o(.text) refers to os_core.o(.text) for OS_Sched
    os_flag.o(.text) refers to os_core.o(.data) for OSIntNesting
    os_flag.o(.text) refers to os_core.o(.bss) for OSFlagTbl
    os_mbox.o(.text) refers to os_cpu_a.o(.text) for OS_CPU_SR_Save
    os_mbox.o(.text) refers to os_core.o(.text) for OS_EventWaitListInit
    os_mbox.o(.text) refers to os_core.o(.data) for OSIntNesting
    os_mutex.o(.text) refers to os_cpu_a.o(.text) for OS_CPU_SR_Save
    os_mutex.o(.text) refers to os_core.o(.text) for OS_EventWaitListInit
    os_mutex.o(.text) refers to os_core.o(.data) for OSIntNesting
    os_mutex.o(.text) refers to os_core.o(.bss) for OSTCBPrioTbl
    os_q.o(.text) refers to os_cpu_a.o(.text) for OS_CPU_SR_Save
    os_q.o(.text) refers to os_core.o(.text) for OS_EventWaitListInit
    os_q.o(.text) refers to os_core.o(.data) for OSIntNesting
    os_q.o(.text) refers to os_core.o(.bss) for OSQTbl
    os_sem.o(.text) refers to os_cpu_a.o(.text) for OS_CPU_SR_Save
    os_sem.o(.text) refers to os_core.o(.text) for OS_EventWaitListInit
    os_sem.o(.text) refers to os_core.o(.data) for OSIntNesting
    os_task.o(.text) refers to os_cpu_a.o(.text) for OS_CPU_SR_Save
    os_task.o(.text) refers to os_core.o(.text) for OS_Sched
    os_task.o(.text) refers to os_cpu_c.o(.text) for OSTaskStkInit
    os_task.o(.text) refers to os_flag.o(.text) for OS_FlagUnlink
    os_task.o(.text) refers to os_core.o(.bss) for OSTCBPrioTbl
    os_task.o(.text) refers to os_core.o(.data) for OSTCBCur
    os_time.o(.text) refers to os_cpu_a.o(.text) for OS_CPU_SR_Save
    os_time.o(.text) refers to os_core.o(.text) for OS_Sched
    os_time.o(.text) refers to os_core.o(.data) for OSIntNesting
    os_time.o(.text) refers to os_core.o(.bss) for OSTCBPrioTbl
    os_cpu_a.o(.text) refers to os_core.o(.data) for OSRunning
    os_cpu_a.o(.text) refers to os_cpu_c.o(.text) for OSTaskSwHook
    os_cpu_c.o(.text) refers to os_task.o(.text) for OS_TaskReturn
    button.o(.text) refers to gui.o(.text) for gui_memin_free
    button.o(.text) refers to gui.o(.bss) for gui_phy
    button.o(.text) refers to bmp.o(.text) for minibmp_decode
    edit.o(.text) refers to gui.o(.text) for gui_memin_free
    edit.o(.text) refers to strlen.o(.text) for strlen
    edit.o(.text) refers to strcpy.o(.text) for strcpy
    edit.o(.text) refers to strcat.o(.text) for strcat
    edit.o(.text) refers to gui.o(.bss) for gui_phy
    edit.o(.text) refers to os_core.o(.data) for OSTime
    edit.o(.text) refers to edit.o(.data) for chooseflag
    filelistbox.o(.text) refers to gui.o(.text) for gui_memin_malloc
    filelistbox.o(.text) refers to scrollbar.o(.text) for scrollbar_creat
    filelistbox.o(.text) refers to ff.o(.text) for f_getfree
    filelistbox.o(.text) refers to strcpy.o(.text) for strcpy
    filelistbox.o(.text) refers to strcat.o(.text) for strcat
    filelistbox.o(.text) refers to gui.o(.bss) for gui_phy
    filelistbox.o(.text) refers to filelistbox.o(.data) for FLIST_DISK_ORDER_TBL
    filelistbox.o(.text) refers to filelistbox.o(.constdata) for FLIST_DISK_PATH_TBL
    filelistbox.o(.text) refers to strlen.o(.text) for strlen
    filelistbox.o(.text) refers to strstr.o(.text) for strstr
    filelistbox.o(.text) refers to exfuns.o(.text) for f_typetell
    filelistbox.o(.text) refers to strcmp.o(.text) for strcmp
    filelistbox.o(.text) refers to os_core.o(.data) for OSTime
    filelistbox.o(.text) refers to lcd.o(.text) for LCD_Clear
    filelistbox.o(.constdata) refers to filelistbox.o(.conststring) for .conststring
    gui.o(.text) refers to lcd.o(.text) for LCD_DrawPoint
    gui.o(.text) refers to lcd.o(.data) for POINT_COLOR
    gui.o(.text) refers to gui.o(.bss) for gui_phy
    gui.o(.text) refers to lcd.o(.bss) for lcddev
    gui.o(.text) refers to gui.o(.data) for in_obj
    gui.o(.text) refers to malloc.o(.text) for myfree
    gui.o(.text) refers to text.o(.text) for Get_HzMat
    gui.o(.text) refers to gui.o(.constdata) for icostbl_16
    gui.o(.text) refers to strlen.o(.text) for strlen
    gui.o(.text) refers to ldiv.o(.text) for __aeabi_ldivmod
    gui.o(.text) refers to lcd.o(.constdata) for asc2_1206
    gui.o(.text) refers to strcpy.o(.text) for strcpy
    gui.o(.text) refers to strcat.o(.text) for strcat
    gui.o(.constdata) refers to gui.o(.conststring) for .conststring
    gui.o(.data) refers to gui.o(.text) for gui_get_key
    listbox.o(.text) refers to gui.o(.text) for gui_memin_malloc
    listbox.o(.text) refers to scrollbar.o(.text) for scrollbar_creat
    listbox.o(.text) refers to strlen.o(.text) for strlen
    listbox.o(.text) refers to gui.o(.bss) for gui_phy
    listbox.o(.text) refers to listbox.o(.data) for scrollbarflag
    listbox.o(.text) refers to os_core.o(.data) for OSTime
    memo.o(.text) refers to gui.o(.text) for gui_memex_free
    memo.o(.text) refers to scrollbar.o(.text) for scrollbar_delete
    memo.o(.text) refers to gui.o(.bss) for gui_phy
    memo.o(.text) refers to os_core.o(.data) for OSTime
    memo.o(.text) refers to memo.o(.data) for scrollbarflag
    memo.o(.text) refers to strlen.o(.text) for strlen
    memo.o(.text) refers to strcpy.o(.text) for strcpy
    memo.o(.text) refers to strcat.o(.text) for strcat
    progressbar.o(.text) refers to gui.o(.text) for gui_memin_malloc
    progressbar.o(.text) refers to ldiv.o(.text) for __aeabi_ldivmod
    progressbar.o(.text) refers to progressbar.o(.constdata) for pasciitbl
    progressbar.o(.text) refers to gui.o(.bss) for gui_phy
    scrollbar.o(.text) refers to gui.o(.text) for gui_memin_malloc
    scrollbar.o(.text) refers to scrollbar.o(.constdata) for scrollsign
    scrollbar.o(.text) refers to gui.o(.bss) for gui_phy
    window.o(.text) refers to gui.o(.text) for gui_memex_free
    window.o(.text) refers to button.o(.text) for btn_delete
    window.o(.text) refers to gui.o(.bss) for gui_phy
    window.o(.text) refers to strlen.o(.text) for strlen
    window.o(.text) refers to delay.o(.text) for delay_ms
    window.o(.text) refers to gui.o(.constdata) for GUI_OK_CAPTION_TBL
    window.o(.text) refers to window.o(.data) for system_task_return
    window.o(.text) refers to touch.o(.data) for tp_dev
    window.o(.text) refers to gui.o(.data) for in_obj
    sqrt.o(i.__hardfp_sqrt) refers (Special) to iusefp.o(.text) for __I$use$fp
    sqrt.o(i.__hardfp_sqrt) refers to dsqrt.o(.text) for _dsqrt
    sqrt.o(i.__hardfp_sqrt) refers to errno.o(i.__set_errno) for __set_errno
    sqrt.o(i.__softfp_sqrt) refers (Special) to iusefp.o(.text) for __I$use$fp
    sqrt.o(i.__softfp_sqrt) refers to dsqrt.o(.text) for _dsqrt
    sqrt.o(i.__softfp_sqrt) refers to errno.o(i.__set_errno) for __set_errno
    sqrt.o(i.sqrt) refers (Special) to iusefp.o(.text) for __I$use$fp
    sqrt.o(i.sqrt) refers to dsqrt.o(.text) for _dsqrt
    sqrt.o(i.sqrt) refers to errno.o(i.__set_errno) for __set_errno
    sqrt_x.o(i.____hardfp_sqrt$lsc) refers (Special) to iusefp.o(.text) for __I$use$fp
    sqrt_x.o(i.____hardfp_sqrt$lsc) refers to cdcmple.o(.text) for __aeabi_cdcmple
    sqrt_x.o(i.____hardfp_sqrt$lsc) refers to errno.o(i.__set_errno) for __set_errno
    sqrt_x.o(i.____hardfp_sqrt$lsc) refers to dsqrt.o(.text) for _dsqrt
    sqrt_x.o(i.____softfp_sqrt$lsc) refers (Special) to iusefp.o(.text) for __I$use$fp
    sqrt_x.o(i.____softfp_sqrt$lsc) refers to cdcmple.o(.text) for __aeabi_cdcmple
    sqrt_x.o(i.____softfp_sqrt$lsc) refers to errno.o(i.__set_errno) for __set_errno
    sqrt_x.o(i.____softfp_sqrt$lsc) refers to dsqrt.o(.text) for _dsqrt
    sqrt_x.o(i.__sqrt$lsc) refers (Special) to iusefp.o(.text) for __I$use$fp
    sqrt_x.o(i.__sqrt$lsc) refers to cdcmple.o(.text) for __aeabi_cdcmple
    sqrt_x.o(i.__sqrt$lsc) refers to errno.o(i.__set_errno) for __set_errno
    sqrt_x.o(i.__sqrt$lsc) refers to dsqrt.o(.text) for _dsqrt
    entry.o(.ARM.Collect$$$$00000000) refers (Special) to entry10a.o(.ARM.Collect$$$$0000000D) for __rt_final_cpp
    entry.o(.ARM.Collect$$$$00000000) refers (Special) to entry11a.o(.ARM.Collect$$$$0000000F) for __rt_final_exit
    entry.o(.ARM.Collect$$$$00000000) refers (Special) to entry7b.o(.ARM.Collect$$$$00000008) for _main_clock
    entry.o(.ARM.Collect$$$$00000000) refers (Special) to entry8b.o(.ARM.Collect$$$$0000000A) for _main_cpp_init
    entry.o(.ARM.Collect$$$$00000000) refers (Special) to entry9a.o(.ARM.Collect$$$$0000000B) for _main_init
    entry.o(.ARM.Collect$$$$00000000) refers (Special) to entry5.o(.ARM.Collect$$$$00000004) for _main_scatterload
    entry.o(.ARM.Collect$$$$00000000) refers (Special) to entry2.o(.ARM.Collect$$$$00000001) for _main_stk
    fwrite.o(i.fwrite) refers to usart.o(.text) for fputc
    fwrite_e.o(.text) refers to usart.o(.text) for fputc
    ldiv.o(.text) refers to uldiv.o(.text) for __aeabi_uldivmod
    printfb.o(i.__0fprintf$bare) refers to printfb.o(i._printf_core) for _printf_core
    printfb.o(i.__0fprintf$bare) refers to usart.o(.text) for fputc
    printfb.o(i.__0printf$bare) refers to printfb.o(i._printf_core) for _printf_core
    printfb.o(i.__0printf$bare) refers to usart.o(.text) for fputc
    printfb.o(i.__0printf$bare) refers to usart.o(.data) for __stdout
    printfb.o(i.__0snprintf$bare) refers to printfb.o(i._printf_core) for _printf_core
    printfb.o(i.__0snprintf$bare) refers to printfb.o(i._snputc) for _snputc
    printfb.o(i.__0sprintf$bare) refers to printfb.o(i._printf_core) for _printf_core
    printfb.o(i.__0sprintf$bare) refers to printfb.o(i._sputc) for _sputc
    printfb.o(i.__0vfprintf$bare) refers to printfb.o(i._printf_core) for _printf_core
    printfb.o(i.__0vfprintf$bare) refers to usart.o(.text) for fputc
    printfb.o(i.__0vprintf$bare) refers to printfb.o(i._printf_core) for _printf_core
    printfb.o(i.__0vprintf$bare) refers to usart.o(.text) for fputc
    printfb.o(i.__0vprintf$bare) refers to usart.o(.data) for __stdout
    printfb.o(i.__0vsnprintf$bare) refers to printfb.o(i._printf_core) for _printf_core
    printfb.o(i.__0vsnprintf$bare) refers to printfb.o(i._snputc) for _snputc
    printfb.o(i.__0vsprintf$bare) refers to printfb.o(i._printf_core) for _printf_core
    printfb.o(i.__0vsprintf$bare) refers to printfb.o(i._sputc) for _sputc
    printf0.o(i.__0fprintf$0) refers to printf0.o(i._printf_core) for _printf_core
    printf0.o(i.__0fprintf$0) refers to usart.o(.text) for fputc
    printf0.o(i.__0printf$0) refers to printf0.o(i._printf_core) for _printf_core
    printf0.o(i.__0printf$0) refers to usart.o(.text) for fputc
    printf0.o(i.__0printf$0) refers to usart.o(.data) for __stdout
    printf0.o(i.__0snprintf$0) refers to printf0.o(i._printf_core) for _printf_core
    printf0.o(i.__0snprintf$0) refers to printf0.o(i._snputc) for _snputc
    printf0.o(i.__0sprintf$0) refers to printf0.o(i._printf_core) for _printf_core
    printf0.o(i.__0sprintf$0) refers to printf0.o(i._sputc) for _sputc
    printf0.o(i.__0vfprintf$0) refers to printf0.o(i._printf_core) for _printf_core
    printf0.o(i.__0vfprintf$0) refers to usart.o(.text) for fputc
    printf0.o(i.__0vprintf$0) refers to printf0.o(i._printf_core) for _printf_core
    printf0.o(i.__0vprintf$0) refers to usart.o(.text) for fputc
    printf0.o(i.__0vprintf$0) refers to usart.o(.data) for __stdout
    printf0.o(i.__0vsnprintf$0) refers to printf0.o(i._printf_core) for _printf_core
    printf0.o(i.__0vsnprintf$0) refers to printf0.o(i._snputc) for _snputc
    printf0.o(i.__0vsprintf$0) refers to printf0.o(i._printf_core) for _printf_core
    printf0.o(i.__0vsprintf$0) refers to printf0.o(i._sputc) for _sputc
    printf1.o(i.__0fprintf$1) refers to printf1.o(i._printf_core) for _printf_core
    printf1.o(i.__0fprintf$1) refers to usart.o(.text) for fputc
    printf1.o(i.__0printf$1) refers to printf1.o(i._printf_core) for _printf_core
    printf1.o(i.__0printf$1) refers to usart.o(.text) for fputc
    printf1.o(i.__0printf$1) refers to usart.o(.data) for __stdout
    printf1.o(i.__0snprintf$1) refers to printf1.o(i._printf_core) for _printf_core
    printf1.o(i.__0snprintf$1) refers to printf1.o(i._snputc) for _snputc
    printf1.o(i.__0sprintf$1) refers to printf1.o(i._printf_core) for _printf_core
    printf1.o(i.__0sprintf$1) refers to printf1.o(i._sputc) for _sputc
    printf1.o(i.__0vfprintf$1) refers to printf1.o(i._printf_core) for _printf_core
    printf1.o(i.__0vfprintf$1) refers to usart.o(.text) for fputc
    printf1.o(i.__0vprintf$1) refers to printf1.o(i._printf_core) for _printf_core
    printf1.o(i.__0vprintf$1) refers to usart.o(.text) for fputc
    printf1.o(i.__0vprintf$1) refers to usart.o(.data) for __stdout
    printf1.o(i.__0vsnprintf$1) refers to printf1.o(i._printf_core) for _printf_core
    printf1.o(i.__0vsnprintf$1) refers to printf1.o(i._snputc) for _snputc
    printf1.o(i.__0vsprintf$1) refers to printf1.o(i._printf_core) for _printf_core
    printf1.o(i.__0vsprintf$1) refers to printf1.o(i._sputc) for _sputc
    printf1.o(i._printf_core) refers to uidiv.o(.text) for __aeabi_uidivmod
    printf2.o(i.__0fprintf$2) refers to printf2.o(i._printf_core) for _printf_core
    printf2.o(i.__0fprintf$2) refers to usart.o(.text) for fputc
    printf2.o(i.__0printf$2) refers to printf2.o(i._printf_core) for _printf_core
    printf2.o(i.__0printf$2) refers to usart.o(.text) for fputc
    printf2.o(i.__0printf$2) refers to usart.o(.data) for __stdout
    printf2.o(i.__0snprintf$2) refers to printf2.o(i._printf_core) for _printf_core
    printf2.o(i.__0snprintf$2) refers to printf2.o(i._snputc) for _snputc
    printf2.o(i.__0sprintf$2) refers to printf2.o(i._printf_core) for _printf_core
    printf2.o(i.__0sprintf$2) refers to printf2.o(i._sputc) for _sputc
    printf2.o(i.__0vfprintf$2) refers to printf2.o(i._printf_core) for _printf_core
    printf2.o(i.__0vfprintf$2) refers to usart.o(.text) for fputc
    printf2.o(i.__0vprintf$2) refers to printf2.o(i._printf_core) for _printf_core
    printf2.o(i.__0vprintf$2) refers to usart.o(.text) for fputc
    printf2.o(i.__0vprintf$2) refers to usart.o(.data) for __stdout
    printf2.o(i.__0vsnprintf$2) refers to printf2.o(i._printf_core) for _printf_core
    printf2.o(i.__0vsnprintf$2) refers to printf2.o(i._snputc) for _snputc
    printf2.o(i.__0vsprintf$2) refers to printf2.o(i._printf_core) for _printf_core
    printf2.o(i.__0vsprintf$2) refers to printf2.o(i._sputc) for _sputc
    printf3.o(i.__0fprintf$3) refers to printf3.o(i._printf_core) for _printf_core
    printf3.o(i.__0fprintf$3) refers to usart.o(.text) for fputc
    printf3.o(i.__0printf$3) refers to printf3.o(i._printf_core) for _printf_core
    printf3.o(i.__0printf$3) refers to usart.o(.text) for fputc
    printf3.o(i.__0printf$3) refers to usart.o(.data) for __stdout
    printf3.o(i.__0snprintf$3) refers to printf3.o(i._printf_core) for _printf_core
    printf3.o(i.__0snprintf$3) refers to printf3.o(i._snputc) for _snputc
    printf3.o(i.__0sprintf$3) refers to printf3.o(i._printf_core) for _printf_core
    printf3.o(i.__0sprintf$3) refers to printf3.o(i._sputc) for _sputc
    printf3.o(i.__0vfprintf$3) refers to printf3.o(i._printf_core) for _printf_core
    printf3.o(i.__0vfprintf$3) refers to usart.o(.text) for fputc
    printf3.o(i.__0vprintf$3) refers to printf3.o(i._printf_core) for _printf_core
    printf3.o(i.__0vprintf$3) refers to usart.o(.text) for fputc
    printf3.o(i.__0vprintf$3) refers to usart.o(.data) for __stdout
    printf3.o(i.__0vsnprintf$3) refers to printf3.o(i._printf_core) for _printf_core
    printf3.o(i.__0vsnprintf$3) refers to printf3.o(i._snputc) for _snputc
    printf3.o(i.__0vsprintf$3) refers to printf3.o(i._printf_core) for _printf_core
    printf3.o(i.__0vsprintf$3) refers to printf3.o(i._sputc) for _sputc
    printf3.o(i._printf_core) refers to uidiv.o(.text) for __aeabi_uidivmod
    printf4.o(i.__0fprintf$4) refers to printf4.o(i._printf_core) for _printf_core
    printf4.o(i.__0fprintf$4) refers to usart.o(.text) for fputc
    printf4.o(i.__0printf$4) refers to printf4.o(i._printf_core) for _printf_core
    printf4.o(i.__0printf$4) refers to usart.o(.text) for fputc
    printf4.o(i.__0printf$4) refers to usart.o(.data) for __stdout
    printf4.o(i.__0snprintf$4) refers to printf4.o(i._printf_core) for _printf_core
    printf4.o(i.__0snprintf$4) refers to printf4.o(i._snputc) for _snputc
    printf4.o(i.__0sprintf$4) refers to printf4.o(i._printf_core) for _printf_core
    printf4.o(i.__0sprintf$4) refers to printf4.o(i._sputc) for _sputc
    printf4.o(i.__0vfprintf$4) refers to printf4.o(i._printf_core) for _printf_core
    printf4.o(i.__0vfprintf$4) refers to usart.o(.text) for fputc
    printf4.o(i.__0vprintf$4) refers to printf4.o(i._printf_core) for _printf_core
    printf4.o(i.__0vprintf$4) refers to usart.o(.text) for fputc
    printf4.o(i.__0vprintf$4) refers to usart.o(.data) for __stdout
    printf4.o(i.__0vsnprintf$4) refers to printf4.o(i._printf_core) for _printf_core
    printf4.o(i.__0vsnprintf$4) refers to printf4.o(i._snputc) for _snputc
    printf4.o(i.__0vsprintf$4) refers to printf4.o(i._printf_core) for _printf_core
    printf4.o(i.__0vsprintf$4) refers to printf4.o(i._sputc) for _sputc
    printf4.o(i._printf_core) refers to uldiv.o(.text) for __aeabi_uldivmod
    printf5.o(i.__0fprintf$5) refers to printf5.o(i._printf_core) for _printf_core
    printf5.o(i.__0fprintf$5) refers to usart.o(.text) for fputc
    printf5.o(i.__0printf$5) refers to printf5.o(i._printf_core) for _printf_core
    printf5.o(i.__0printf$5) refers to usart.o(.text) for fputc
    printf5.o(i.__0printf$5) refers to usart.o(.data) for __stdout
    printf5.o(i.__0snprintf$5) refers to printf5.o(i._printf_core) for _printf_core
    printf5.o(i.__0snprintf$5) refers to printf5.o(i._snputc) for _snputc
    printf5.o(i.__0sprintf$5) refers to printf5.o(i._printf_core) for _printf_core
    printf5.o(i.__0sprintf$5) refers to printf5.o(i._sputc) for _sputc
    printf5.o(i.__0vfprintf$5) refers to printf5.o(i._printf_core) for _printf_core
    printf5.o(i.__0vfprintf$5) refers to usart.o(.text) for fputc
    printf5.o(i.__0vprintf$5) refers to printf5.o(i._printf_core) for _printf_core
    printf5.o(i.__0vprintf$5) refers to usart.o(.text) for fputc
    printf5.o(i.__0vprintf$5) refers to usart.o(.data) for __stdout
    printf5.o(i.__0vsnprintf$5) refers to printf5.o(i._printf_core) for _printf_core
    printf5.o(i.__0vsnprintf$5) refers to printf5.o(i._snputc) for _snputc
    printf5.o(i.__0vsprintf$5) refers to printf5.o(i._printf_core) for _printf_core
    printf5.o(i.__0vsprintf$5) refers to printf5.o(i._sputc) for _sputc
    printf5.o(i._printf_core) refers to uldiv.o(.text) for __aeabi_uldivmod
    printf6.o(i.__0fprintf$6) refers to printf6.o(i._printf_core) for _printf_core
    printf6.o(i.__0fprintf$6) refers to usart.o(.text) for fputc
    printf6.o(i.__0printf$6) refers to printf6.o(i._printf_core) for _printf_core
    printf6.o(i.__0printf$6) refers to usart.o(.text) for fputc
    printf6.o(i.__0printf$6) refers to usart.o(.data) for __stdout
    printf6.o(i.__0snprintf$6) refers to printf6.o(i._printf_core) for _printf_core
    printf6.o(i.__0snprintf$6) refers to printf6.o(i._snputc) for _snputc
    printf6.o(i.__0sprintf$6) refers to printf6.o(i._printf_core) for _printf_core
    printf6.o(i.__0sprintf$6) refers to printf6.o(i._sputc) for _sputc
    printf6.o(i.__0vfprintf$6) refers to printf6.o(i._printf_core) for _printf_core
    printf6.o(i.__0vfprintf$6) refers to usart.o(.text) for fputc
    printf6.o(i.__0vprintf$6) refers to printf6.o(i._printf_core) for _printf_core
    printf6.o(i.__0vprintf$6) refers to usart.o(.text) for fputc
    printf6.o(i.__0vprintf$6) refers to usart.o(.data) for __stdout
    printf6.o(i.__0vsnprintf$6) refers to printf6.o(i._printf_core) for _printf_core
    printf6.o(i.__0vsnprintf$6) refers to printf6.o(i._snputc) for _snputc
    printf6.o(i.__0vsprintf$6) refers to printf6.o(i._printf_core) for _printf_core
    printf6.o(i.__0vsprintf$6) refers to printf6.o(i._sputc) for _sputc
    printf6.o(i._printf_core) refers to printf6.o(i._printf_pre_padding) for _printf_pre_padding
    printf6.o(i._printf_core) refers to uidiv.o(.text) for __aeabi_uidivmod
    printf6.o(i._printf_core) refers to printf6.o(i._printf_post_padding) for _printf_post_padding
    printf7.o(i.__0fprintf$7) refers to printf7.o(i._printf_core) for _printf_core
    printf7.o(i.__0fprintf$7) refers to usart.o(.text) for fputc
    printf7.o(i.__0printf$7) refers to printf7.o(i._printf_core) for _printf_core
    printf7.o(i.__0printf$7) refers to usart.o(.text) for fputc
    printf7.o(i.__0printf$7) refers to usart.o(.data) for __stdout
    printf7.o(i.__0snprintf$7) refers to printf7.o(i._printf_core) for _printf_core
    printf7.o(i.__0snprintf$7) refers to printf7.o(i._snputc) for _snputc
    printf7.o(i.__0sprintf$7) refers to printf7.o(i._printf_core) for _printf_core
    printf7.o(i.__0sprintf$7) refers to printf7.o(i._sputc) for _sputc
    printf7.o(i.__0vfprintf$7) refers to printf7.o(i._printf_core) for _printf_core
    printf7.o(i.__0vfprintf$7) refers to usart.o(.text) for fputc
    printf7.o(i.__0vprintf$7) refers to printf7.o(i._printf_core) for _printf_core
    printf7.o(i.__0vprintf$7) refers to usart.o(.text) for fputc
    printf7.o(i.__0vprintf$7) refers to usart.o(.data) for __stdout
    printf7.o(i.__0vsnprintf$7) refers to printf7.o(i._printf_core) for _printf_core
    printf7.o(i.__0vsnprintf$7) refers to printf7.o(i._snputc) for _snputc
    printf7.o(i.__0vsprintf$7) refers to printf7.o(i._printf_core) for _printf_core
    printf7.o(i.__0vsprintf$7) refers to printf7.o(i._sputc) for _sputc
    printf7.o(i._printf_core) refers to printf7.o(i._printf_pre_padding) for _printf_pre_padding
    printf7.o(i._printf_core) refers to uldiv.o(.text) for __aeabi_uldivmod
    printf7.o(i._printf_core) refers to printf7.o(i._printf_post_padding) for _printf_post_padding
    printf8.o(i.__0fprintf$8) refers to printf8.o(i._printf_core) for _printf_core
    printf8.o(i.__0fprintf$8) refers to usart.o(.text) for fputc
    printf8.o(i.__0printf$8) refers to printf8.o(i._printf_core) for _printf_core
    printf8.o(i.__0printf$8) refers to usart.o(.text) for fputc
    printf8.o(i.__0printf$8) refers to usart.o(.data) for __stdout
    printf8.o(i.__0snprintf$8) refers to printf8.o(i._printf_core) for _printf_core
    printf8.o(i.__0snprintf$8) refers to printf8.o(i._snputc) for _snputc
    printf8.o(i.__0sprintf$8) refers to printf8.o(i._printf_core) for _printf_core
    printf8.o(i.__0sprintf$8) refers to printf8.o(i._sputc) for _sputc
    printf8.o(i.__0vfprintf$8) refers to printf8.o(i._printf_core) for _printf_core
    printf8.o(i.__0vfprintf$8) refers to usart.o(.text) for fputc
    printf8.o(i.__0vprintf$8) refers to printf8.o(i._printf_core) for _printf_core
    printf8.o(i.__0vprintf$8) refers to usart.o(.text) for fputc
    printf8.o(i.__0vprintf$8) refers to usart.o(.data) for __stdout
    printf8.o(i.__0vsnprintf$8) refers to printf8.o(i._printf_core) for _printf_core
    printf8.o(i.__0vsnprintf$8) refers to printf8.o(i._snputc) for _snputc
    printf8.o(i.__0vsprintf$8) refers to printf8.o(i._printf_core) for _printf_core
    printf8.o(i.__0vsprintf$8) refers to printf8.o(i._sputc) for _sputc
    printf8.o(i._printf_core) refers to printf8.o(i._printf_pre_padding) for _printf_pre_padding
    printf8.o(i._printf_core) refers to uldiv.o(.text) for __aeabi_uldivmod
    printf8.o(i._printf_core) refers to printf8.o(i._printf_post_padding) for _printf_post_padding
    printfa.o(i.__0fprintf) refers (Special) to iusefp.o(.text) for __I$use$fp
    printfa.o(i.__0fprintf) refers to printfa.o(i._printf_core) for _printf_core
    printfa.o(i.__0fprintf) refers to usart.o(.text) for fputc
    printfa.o(i.__0printf) refers (Special) to iusefp.o(.text) for __I$use$fp
    printfa.o(i.__0printf) refers to printfa.o(i._printf_core) for _printf_core
    printfa.o(i.__0printf) refers to usart.o(.text) for fputc
    printfa.o(i.__0printf) refers to usart.o(.data) for __stdout
    printfa.o(i.__0snprintf) refers (Special) to iusefp.o(.text) for __I$use$fp
    printfa.o(i.__0snprintf) refers to printfa.o(i._printf_core) for _printf_core
    printfa.o(i.__0snprintf) refers to printfa.o(i._snputc) for _snputc
    printfa.o(i.__0sprintf) refers (Special) to iusefp.o(.text) for __I$use$fp
    printfa.o(i.__0sprintf) refers to printfa.o(i._printf_core) for _printf_core
    printfa.o(i.__0sprintf) refers to printfa.o(i._sputc) for _sputc
    printfa.o(i.__0vfprintf) refers (Special) to iusefp.o(.text) for __I$use$fp
    printfa.o(i.__0vfprintf) refers to printfa.o(i._printf_core) for _printf_core
    printfa.o(i.__0vfprintf) refers to usart.o(.text) for fputc
    printfa.o(i.__0vprintf) refers (Special) to iusefp.o(.text) for __I$use$fp
    printfa.o(i.__0vprintf) refers to printfa.o(i._printf_core) for _printf_core
    printfa.o(i.__0vprintf) refers to usart.o(.text) for fputc
    printfa.o(i.__0vprintf) refers to usart.o(.data) for __stdout
    printfa.o(i.__0vsnprintf) refers (Special) to iusefp.o(.text) for __I$use$fp
    printfa.o(i.__0vsnprintf) refers to printfa.o(i._printf_core) for _printf_core
    printfa.o(i.__0vsnprintf) refers to printfa.o(i._snputc) for _snputc
    printfa.o(i.__0vsprintf) refers (Special) to iusefp.o(.text) for __I$use$fp
    printfa.o(i.__0vsprintf) refers to printfa.o(i._printf_core) for _printf_core
    printfa.o(i.__0vsprintf) refers to printfa.o(i._sputc) for _sputc
    printfa.o(i._fp_digits) refers (Special) to iusefp.o(.text) for __I$use$fp
    printfa.o(i._fp_digits) refers to dmul.o(.text) for __aeabi_dmul
    printfa.o(i._fp_digits) refers to ddiv.o(.text) for __aeabi_ddiv
    printfa.o(i._fp_digits) refers to cdrcmple.o(.text) for __aeabi_cdrcmple
    printfa.o(i._fp_digits) refers to dadd.o(.text) for __aeabi_dadd
    printfa.o(i._fp_digits) refers to dfixul.o(.text) for __aeabi_d2ulz
    printfa.o(i._fp_digits) refers to uldiv.o(.text) for __aeabi_uldivmod
    printfa.o(i._printf_core) refers (Special) to iusefp.o(.text) for __I$use$fp
    printfa.o(i._printf_core) refers to printfa.o(i._printf_pre_padding) for _printf_pre_padding
    printfa.o(i._printf_core) refers to uldiv.o(.text) for __aeabi_uldivmod
    printfa.o(i._printf_core) refers to printfa.o(i._printf_post_padding) for _printf_post_padding
    printfa.o(i._printf_core) refers to printfa.o(i._fp_digits) for _fp_digits
    printfa.o(i._printf_core) refers to uidiv.o(.text) for __aeabi_uidivmod
    printfa.o(i._printf_post_padding) refers (Special) to iusefp.o(.text) for __I$use$fp
    printfa.o(i._printf_pre_padding) refers (Special) to iusefp.o(.text) for __I$use$fp
    printfa.o(i._snputc) refers (Special) to iusefp.o(.text) for __I$use$fp
    printfa.o(i._sputc) refers (Special) to iusefp.o(.text) for __I$use$fp
    __0sscanf.o(.text) refers to scanf_char.o(.text) for __vfscanf_char
    __0sscanf.o(.text) refers to _sgetc.o(.text) for _sgetc
    _scanf_int.o(.text) refers to _chval.o(.text) for _chval
    dadd.o(.text) refers (Special) to iusefp.o(.text) for __I$use$fp
    dadd.o(.text) refers to llshl.o(.text) for __aeabi_llsl
    dadd.o(.text) refers to llsshr.o(.text) for __aeabi_lasr
    dadd.o(.text) refers to depilogue.o(.text) for _double_epilogue
    dmul.o(.text) refers (Special) to iusefp.o(.text) for __I$use$fp
    dmul.o(.text) refers to depilogue.o(.text) for _double_epilogue
    ddiv.o(.text) refers (Special) to iusefp.o(.text) for __I$use$fp
    ddiv.o(.text) refers to depilogue.o(.text) for _double_round
    dflti.o(.text) refers (Special) to iusefp.o(.text) for __I$use$fp
    dflti.o(.text) refers to depilogue.o(.text) for _double_epilogue
    dfltui.o(.text) refers (Special) to iusefp.o(.text) for __I$use$fp
    dfltui.o(.text) refers to depilogue.o(.text) for _double_epilogue
    dfixui.o(.text) refers (Special) to iusefp.o(.text) for __I$use$fp
    dfixui.o(.text) refers to llushr.o(.text) for __aeabi_llsr
    f2d.o(.text) refers (Special) to iusefp.o(.text) for __I$use$fp
    cdcmple.o(.text) refers (Special) to iusefp.o(.text) for __I$use$fp
    cdrcmple.o(.text) refers (Special) to iusefp.o(.text) for __I$use$fp
    d2f.o(.text) refers (Special) to iusefp.o(.text) for __I$use$fp
    d2f.o(.text) refers to fepilogue.o(.text) for _float_round
    entry2.o(.ARM.Collect$$$$00000001) refers to entry2.o(.ARM.Collect$$$$00002712) for __lit__00000000
    entry2.o(.ARM.Collect$$$$00002712) refers to startup_stm32f40_41xxx.o(STACK) for __initial_sp
    entry2.o(__vectab_stack_and_reset_area) refers to startup_stm32f40_41xxx.o(STACK) for __initial_sp
    entry2.o(__vectab_stack_and_reset_area) refers to entry.o(.ARM.Collect$$$$00000000) for __main
    entry5.o(.ARM.Collect$$$$00000004) refers to init.o(.text) for __scatterload
    entry9a.o(.ARM.Collect$$$$0000000B) refers to main.o(.text) for main
    entry9b.o(.ARM.Collect$$$$0000000C) refers to main.o(.text) for main
    uldiv.o(.text) refers to llushr.o(.text) for __aeabi_llsr
    uldiv.o(.text) refers to llshl.o(.text) for __aeabi_llsl
    errno.o(i.__aeabi_errno_addr) refers to errno.o(.data) for .data
    errno.o(i.__read_errno) refers to errno.o(.data) for .data
    errno.o(i.__set_errno) refers to errno.o(.data) for .data
    scanf_char.o(.text) refers to _scanf.o(.text) for __vfscanf
    scanf_char.o(.text) refers to isspace_c.o(.text) for isspace
    depilogue.o(.text) refers to llshl.o(.text) for __aeabi_llsl
    depilogue.o(.text) refers to llushr.o(.text) for __aeabi_llsr
    dsqrt.o(.text) refers to llushr.o(.text) for __aeabi_llsr
    dsqrt.o(.text) refers to depilogue.o(.text) for _double_round
    dfixul.o(.text) refers to llushr.o(.text) for __aeabi_llsr
    dfixul.o(.text) refers to llshl.o(.text) for __aeabi_llsl
    init.o(.text) refers to entry5.o(.ARM.Collect$$$$00000004) for __main_after_scatterload
    isspace_c.o(.text) refers to ctype_c.o(.text) for __ctype_lookup
    _scanf.o(.text) refers (Weak) to _scanf_int.o(.text) for _scanf_int
    _scanf.o(.text) refers (Weak) to _scanf_str.o(.text) for _scanf_string
    ctype_c.o(.text) refers to ctype_c.o(.constdata) for .constdata


==============================================================================

Removing Unused input sections from the image.

    Removing stm32f4xx_it.o(.rev16_text), (4 bytes).
    Removing stm32f4xx_it.o(.revsh_text), (4 bytes).
    Removing system_stm32f4xx.o(.rev16_text), (4 bytes).
    Removing system_stm32f4xx.o(.revsh_text), (4 bytes).
    Removing main.o(.rev16_text), (4 bytes).
    Removing main.o(.revsh_text), (4 bytes).
    Removing led.o(.rev16_text), (4 bytes).
    Removing led.o(.revsh_text), (4 bytes).
    Removing led.o(.text), (64 bytes).
    Removing lcd.o(.rev16_text), (4 bytes).
    Removing lcd.o(.revsh_text), (4 bytes).
    Removing key.o(.rev16_text), (4 bytes).
    Removing key.o(.revsh_text), (4 bytes).
    Removing spi.o(.rev16_text), (4 bytes).
    Removing spi.o(.revsh_text), (4 bytes).
    Removing w25qxx.o(.rev16_text), (4 bytes).
    Removing w25qxx.o(.revsh_text), (4 bytes).
    Removing sdio_sdcard.o(.rev16_text), (4 bytes).
    Removing sdio_sdcard.o(.revsh_text), (4 bytes).
    Removing myiic.o(.rev16_text), (4 bytes).
    Removing myiic.o(.revsh_text), (4 bytes).
    Removing 24cxx.o(.rev16_text), (4 bytes).
    Removing 24cxx.o(.revsh_text), (4 bytes).
    Removing i2s.o(.rev16_text), (4 bytes).
    Removing i2s.o(.revsh_text), (4 bytes).
    Removing wm8978.o(.rev16_text), (4 bytes).
    Removing wm8978.o(.revsh_text), (4 bytes).
    Removing timer.o(.rev16_text), (4 bytes).
    Removing timer.o(.revsh_text), (4 bytes).
    Removing ctiic.o(.rev16_text), (4 bytes).
    Removing ctiic.o(.revsh_text), (4 bytes).
    Removing ft5206.o(.rev16_text), (4 bytes).
    Removing ft5206.o(.revsh_text), (4 bytes).
    Removing gt9147.o(.rev16_text), (4 bytes).
    Removing gt9147.o(.revsh_text), (4 bytes).
    Removing ott2001a.o(.rev16_text), (4 bytes).
    Removing ott2001a.o(.revsh_text), (4 bytes).
    Removing touch.o(.rev16_text), (4 bytes).
    Removing touch.o(.revsh_text), (4 bytes).
    Removing sram.o(.rev16_text), (4 bytes).
    Removing sram.o(.revsh_text), (4 bytes).
    Removing delay.o(.rev16_text), (4 bytes).
    Removing delay.o(.revsh_text), (4 bytes).
    Removing sys.o(.rev16_text), (4 bytes).
    Removing sys.o(.revsh_text), (4 bytes).
    Removing usart.o(.rev16_text), (4 bytes).
    Removing usart.o(.revsh_text), (4 bytes).
    Removing startup_stm32f40_41xxx.o(HEAP), (0 bytes).
    Removing misc.o(.rev16_text), (4 bytes).
    Removing misc.o(.revsh_text), (4 bytes).
    Removing stm32f4xx_gpio.o(.rev16_text), (4 bytes).
    Removing stm32f4xx_gpio.o(.revsh_text), (4 bytes).
    Removing stm32f4xx_fsmc.o(.rev16_text), (4 bytes).
    Removing stm32f4xx_fsmc.o(.revsh_text), (4 bytes).
    Removing stm32f4xx_rcc.o(.rev16_text), (4 bytes).
    Removing stm32f4xx_rcc.o(.revsh_text), (4 bytes).
    Removing stm32f4xx_usart.o(.rev16_text), (4 bytes).
    Removing stm32f4xx_usart.o(.revsh_text), (4 bytes).
    Removing stm32f4xx_tim.o(.rev16_text), (4 bytes).
    Removing stm32f4xx_tim.o(.revsh_text), (4 bytes).
    Removing stm32f4xx_syscfg.o(.rev16_text), (4 bytes).
    Removing stm32f4xx_syscfg.o(.revsh_text), (4 bytes).
    Removing stm32f4xx_syscfg.o(.text), (148 bytes).
    Removing stm32f4xx_spi.o(.rev16_text), (4 bytes).
    Removing stm32f4xx_spi.o(.revsh_text), (4 bytes).
    Removing stm32f4xx_sdio.o(.rev16_text), (4 bytes).
    Removing stm32f4xx_sdio.o(.revsh_text), (4 bytes).
    Removing stm32f4xx_dma.o(.rev16_text), (4 bytes).
    Removing stm32f4xx_dma.o(.revsh_text), (4 bytes).
    Removing malloc.o(.rev16_text), (4 bytes).
    Removing malloc.o(.revsh_text), (4 bytes).
    Removing usmart.o(.rev16_text), (4 bytes).
    Removing usmart.o(.revsh_text), (4 bytes).
    Removing usmart_config.o(.rev16_text), (4 bytes).
    Removing usmart_config.o(.revsh_text), (4 bytes).
    Removing usmart_str.o(.rev16_text), (4 bytes).
    Removing usmart_str.o(.revsh_text), (4 bytes).
    Removing diskio.o(.rev16_text), (4 bytes).
    Removing diskio.o(.revsh_text), (4 bytes).
    Removing exfuns.o(.rev16_text), (4 bytes).
    Removing exfuns.o(.revsh_text), (4 bytes).
    Removing fattester.o(.rev16_text), (4 bytes).
    Removing fattester.o(.revsh_text), (4 bytes).
    Removing mycc936.o(.rev16_text), (4 bytes).
    Removing mycc936.o(.revsh_text), (4 bytes).
    Removing fontupd.o(.rev16_text), (4 bytes).
    Removing fontupd.o(.revsh_text), (4 bytes).
    Removing text.o(.rev16_text), (4 bytes).
    Removing text.o(.revsh_text), (4 bytes).
    Removing wavplay.o(.rev16_text), (4 bytes).
    Removing wavplay.o(.revsh_text), (4 bytes).
    Removing wavplay.o(.text), (1440 bytes).
    Removing wavplay.o(.bss), (32 bytes).
    Removing wavplay.o(.data), (2 bytes).
    Removing audioplay.o(.rev16_text), (4 bytes).
    Removing audioplay.o(.revsh_text), (4 bytes).
    Removing audioplay.o(.text), (1176 bytes).
    Removing audioplay.o(.bss), (17 bytes).
    Removing audioplay.o(.data), (2 bytes).
    Removing videoplayer.o(.rev16_text), (4 bytes).
    Removing videoplayer.o(.revsh_text), (4 bytes).
    Removing avi.o(.rev16_text), (4 bytes).
    Removing avi.o(.revsh_text), (4 bytes).
    Removing mjpeg.o(.rev16_text), (4 bytes).
    Removing mjpeg.o(.revsh_text), (4 bytes).
    Removing jdmerge.o(.rev16_text), (4 bytes).
    Removing jdmerge.o(.revsh_text), (4 bytes).
    Removing jmemnobs.o(.rev16_text), (4 bytes).
    Removing jmemnobs.o(.revsh_text), (4 bytes).
    Removing wrppm.o(.text), (368 bytes).
    Removing bmp.o(.rev16_text), (4 bytes).
    Removing bmp.o(.revsh_text), (4 bytes).
    Removing gif.o(.rev16_text), (4 bytes).
    Removing gif.o(.revsh_text), (4 bytes).
    Removing piclib.o(.rev16_text), (4 bytes).
    Removing piclib.o(.revsh_text), (4 bytes).
    Removing tjpgd.o(.rev16_text), (4 bytes).
    Removing tjpgd.o(.revsh_text), (4 bytes).
    Removing os_core.o(.rev16_text), (4 bytes).
    Removing os_core.o(.revsh_text), (4 bytes).
    Removing os_flag.o(.rev16_text), (4 bytes).
    Removing os_flag.o(.revsh_text), (4 bytes).
    Removing os_mbox.o(.rev16_text), (4 bytes).
    Removing os_mbox.o(.revsh_text), (4 bytes).
    Removing os_mem.o(.rev16_text), (4 bytes).
    Removing os_mem.o(.revsh_text), (4 bytes).
    Removing os_mutex.o(.rev16_text), (4 bytes).
    Removing os_mutex.o(.revsh_text), (4 bytes).
    Removing os_mutex.o(.text), (1536 bytes).
    Removing os_q.o(.rev16_text), (4 bytes).
    Removing os_q.o(.revsh_text), (4 bytes).
    Removing os_sem.o(.rev16_text), (4 bytes).
    Removing os_sem.o(.revsh_text), (4 bytes).
    Removing os_sem.o(.text), (908 bytes).
    Removing os_task.o(.rev16_text), (4 bytes).
    Removing os_task.o(.revsh_text), (4 bytes).
    Removing os_time.o(.rev16_text), (4 bytes).
    Removing os_time.o(.revsh_text), (4 bytes).
    Removing os_tmr.o(.rev16_text), (4 bytes).
    Removing os_tmr.o(.revsh_text), (4 bytes).
    Removing os_cpu_c.o(.rev16_text), (4 bytes).
    Removing os_cpu_c.o(.revsh_text), (4 bytes).
    Removing os_cpu_c.o(.data), (4 bytes).
    Removing button.o(.rev16_text), (4 bytes).
    Removing button.o(.revsh_text), (4 bytes).
    Removing edit.o(.rev16_text), (4 bytes).
    Removing edit.o(.revsh_text), (4 bytes).
    Removing edit.o(.text), (1644 bytes).
    Removing edit.o(.data), (1 bytes).
    Removing filelistbox.o(.rev16_text), (4 bytes).
    Removing filelistbox.o(.revsh_text), (4 bytes).
    Removing filelistbox.o(.text), (5620 bytes).
    Removing filelistbox.o(.constdata), (96 bytes).
    Removing filelistbox.o(.conststring), (191 bytes).
    Removing filelistbox.o(.data), (9 bytes).
    Removing gui.o(.rev16_text), (4 bytes).
    Removing gui.o(.revsh_text), (4 bytes).
    Removing listbox.o(.rev16_text), (4 bytes).
    Removing listbox.o(.revsh_text), (4 bytes).
    Removing listbox.o(.text), (2240 bytes).
    Removing listbox.o(.data), (1 bytes).
    Removing memo.o(.rev16_text), (4 bytes).
    Removing memo.o(.revsh_text), (4 bytes).
    Removing memo.o(.text), (2590 bytes).
    Removing memo.o(.data), (1 bytes).
    Removing progressbar.o(.rev16_text), (4 bytes).
    Removing progressbar.o(.revsh_text), (4 bytes).
    Removing progressbar.o(.text), (1918 bytes).
    Removing progressbar.o(.constdata), (55 bytes).
    Removing scrollbar.o(.rev16_text), (4 bytes).
    Removing scrollbar.o(.revsh_text), (4 bytes).
    Removing scrollbar.o(.text), (1822 bytes).
    Removing scrollbar.o(.constdata), (48 bytes).
    Removing window.o(.rev16_text), (4 bytes).
    Removing window.o(.revsh_text), (4 bytes).
    Removing dfixul.o(.text), (48 bytes).

176 unused section(s) (total 22573 bytes) removed from the image.

==============================================================================

Image Symbol Table

    Local Symbols

    Symbol Name                              Value     Ov Type        Size  Object(Section)

    ../clib/../cmprslib/zerorunl2.c          0x00000000   Number         0  __dczerorl2.o ABSOLUTE
    ../clib/microlib/ctype/ctype.c           0x00000000   Number         0  ctype_c.o ABSOLUTE
    ../clib/microlib/ctype/ctype.c           0x00000000   Number         0  isspace_c.o ABSOLUTE
    ../clib/microlib/division.c              0x00000000   Number         0  uldiv.o ABSOLUTE
    ../clib/microlib/division.c              0x00000000   Number         0  uidiv.o ABSOLUTE
    ../clib/microlib/division.c              0x00000000   Number         0  ldiv.o ABSOLUTE
    ../clib/microlib/errno.c                 0x00000000   Number         0  errno.o ABSOLUTE
    ../clib/microlib/init/entry.s            0x00000000   Number         0  entry2.o ABSOLUTE
    ../clib/microlib/init/entry.s            0x00000000   Number         0  entry11b.o ABSOLUTE
    ../clib/microlib/init/entry.s            0x00000000   Number         0  entry11a.o ABSOLUTE
    ../clib/microlib/init/entry.s            0x00000000   Number         0  entry5.o ABSOLUTE
    ../clib/microlib/init/entry.s            0x00000000   Number         0  entry7a.o ABSOLUTE
    ../clib/microlib/init/entry.s            0x00000000   Number         0  entry7b.o ABSOLUTE
    ../clib/microlib/init/entry.s            0x00000000   Number         0  entry10a.o ABSOLUTE
    ../clib/microlib/init/entry.s            0x00000000   Number         0  entry9b.o ABSOLUTE
    ../clib/microlib/init/entry.s            0x00000000   Number         0  entry8a.o ABSOLUTE
    ../clib/microlib/init/entry.s            0x00000000   Number         0  entry.o ABSOLUTE
    ../clib/microlib/init/entry.s            0x00000000   Number         0  entry8b.o ABSOLUTE
    ../clib/microlib/init/entry.s            0x00000000   Number         0  entry9a.o ABSOLUTE
    ../clib/microlib/init/entry.s            0x00000000   Number         0  entry10b.o ABSOLUTE
    ../clib/microlib/longlong.c              0x00000000   Number         0  llshl.o ABSOLUTE
    ../clib/microlib/longlong.c              0x00000000   Number         0  llushr.o ABSOLUTE
    ../clib/microlib/longlong.c              0x00000000   Number         0  llsshr.o ABSOLUTE
    ../clib/microlib/printf/printf.c         0x00000000   Number         0  printfa.o ABSOLUTE
    ../clib/microlib/printf/printf.c         0x00000000   Number         0  printfb.o ABSOLUTE
    ../clib/microlib/printf/printf.c         0x00000000   Number         0  printf8.o ABSOLUTE
    ../clib/microlib/printf/printf.c         0x00000000   Number         0  printf7.o ABSOLUTE
    ../clib/microlib/printf/printf.c         0x00000000   Number         0  printf6.o ABSOLUTE
    ../clib/microlib/printf/printf.c         0x00000000   Number         0  printf5.o ABSOLUTE
    ../clib/microlib/printf/printf.c         0x00000000   Number         0  printf4.o ABSOLUTE
    ../clib/microlib/printf/printf.c         0x00000000   Number         0  printf0.o ABSOLUTE
    ../clib/microlib/printf/printf.c         0x00000000   Number         0  printf3.o ABSOLUTE
    ../clib/microlib/printf/printf.c         0x00000000   Number         0  printf2.o ABSOLUTE
    ../clib/microlib/printf/printf.c         0x00000000   Number         0  printf1.o ABSOLUTE
    ../clib/microlib/printf/stubs.s          0x00000000   Number         0  stubs.o ABSOLUTE
    ../clib/microlib/stdio/fwrite.c          0x00000000   Number         0  fwrite_e.o ABSOLUTE
    ../clib/microlib/stdio/fwrite.c          0x00000000   Number         0  fwrite.o ABSOLUTE
    ../clib/microlib/stdlib/getenv.c         0x00000000   Number         0  getenv.o ABSOLUTE
    ../clib/microlib/string/memcpy.c         0x00000000   Number         0  memcpyb.o ABSOLUTE
    ../clib/microlib/string/memcpy.c         0x00000000   Number         0  memcpya.o ABSOLUTE
    ../clib/microlib/string/memset.c         0x00000000   Number         0  memseta.o ABSOLUTE
    ../clib/microlib/string/strcat.c         0x00000000   Number         0  strcat.o ABSOLUTE
    ../clib/microlib/string/strcmp.c         0x00000000   Number         0  strcmp.o ABSOLUTE
    ../clib/microlib/string/strcpy.c         0x00000000   Number         0  strcpy.o ABSOLUTE
    ../clib/microlib/string/strlen.c         0x00000000   Number         0  strlen.o ABSOLUTE
    ../clib/microlib/string/strncpy.c        0x00000000   Number         0  strncpy.o ABSOLUTE
    ../clib/microlib/string/strstr.c         0x00000000   Number         0  strstr.o ABSOLUTE
    ../clib/microlib/stubs.s                 0x00000000   Number         0  useno.o ABSOLUTE
    ../clib/microlib/stubs.s                 0x00000000   Number         0  iusefp.o ABSOLUTE
    ../clib/scanf.c                          0x00000000   Number         0  _sgetc.o ABSOLUTE
    ../clib/scanf.c                          0x00000000   Number         0  scanf_char.o ABSOLUTE
    ../clib/scanf.c                          0x00000000   Number         0  _chval.o ABSOLUTE
    ../clib/scanf.c                          0x00000000   Number         0  _scanf_str.o ABSOLUTE
    ../clib/scanf.c                          0x00000000   Number         0  _scanf_int.o ABSOLUTE
    ../clib/scanf.c                          0x00000000   Number         0  __0sscanf.o ABSOLUTE
    ../clib/scanf.c                          0x00000000   Number         0  _scanf.o ABSOLUTE
    ../fplib/microlib/d2f.c                  0x00000000   Number         0  d2f.o ABSOLUTE
    ../fplib/microlib/f2d.c                  0x00000000   Number         0  f2d.o ABSOLUTE
    ../fplib/microlib/fpadd.c                0x00000000   Number         0  dadd.o ABSOLUTE
    ../fplib/microlib/fpdiv.c                0x00000000   Number         0  ddiv.o ABSOLUTE
    ../fplib/microlib/fpepilogue.c           0x00000000   Number         0  fepilogue.o ABSOLUTE
    ../fplib/microlib/fpepilogue.c           0x00000000   Number         0  depilogue.o ABSOLUTE
    ../fplib/microlib/fpfix.c                0x00000000   Number         0  dfixui.o ABSOLUTE
    ../fplib/microlib/fpfix.c                0x00000000   Number         0  dfixul.o ABSOLUTE
    ../fplib/microlib/fpflt.c                0x00000000   Number         0  dfltui.o ABSOLUTE
    ../fplib/microlib/fpflt.c                0x00000000   Number         0  dflti.o ABSOLUTE
    ../fplib/microlib/fpmul.c                0x00000000   Number         0  dmul.o ABSOLUTE
    ../fplib/microlib/fpsqrt.c               0x00000000   Number         0  dsqrt.o ABSOLUTE
    ../fplib/setjmp.s                        0x00000000   Number         0  setjmp.o ABSOLUTE
    ../mathlib/sqrt.c                        0x00000000   Number         0  sqrt.o ABSOLUTE
    ../mathlib/sqrt.c                        0x00000000   Number         0  sqrt_x.o ABSOLUTE
    ..\APP\audioplay.c                       0x00000000   Number         0  audioplay.o ABSOLUTE
    ..\APP\videoplayer.c                     0x00000000   Number         0  videoplayer.o ABSOLUTE
    ..\AUDIOCODEC\wav\wavplay.c              0x00000000   Number         0  wavplay.o ABSOLUTE
    ..\CORE\startup_stm32f40_41xxx.s         0x00000000   Number         0  startup_stm32f40_41xxx.o ABSOLUTE
    ..\FATFS\exfuns\exfuns.c                 0x00000000   Number         0  exfuns.o ABSOLUTE
    ..\FATFS\exfuns\fattester.c              0x00000000   Number         0  fattester.o ABSOLUTE
    ..\FATFS\exfuns\mycc936.c                0x00000000   Number         0  mycc936.o ABSOLUTE
    ..\FATFS\src\diskio.c                    0x00000000   Number         0  diskio.o ABSOLUTE
    ..\FATFS\src\ff.c                        0x00000000   Number         0  ff.o ABSOLUTE
    ..\FWLIB\src\misc.c                      0x00000000   Number         0  misc.o ABSOLUTE
    ..\FWLIB\src\stm32f4xx_dma.c             0x00000000   Number         0  stm32f4xx_dma.o ABSOLUTE
    ..\FWLIB\src\stm32f4xx_fsmc.c            0x00000000   Number         0  stm32f4xx_fsmc.o ABSOLUTE
    ..\FWLIB\src\stm32f4xx_gpio.c            0x00000000   Number         0  stm32f4xx_gpio.o ABSOLUTE
    ..\FWLIB\src\stm32f4xx_rcc.c             0x00000000   Number         0  stm32f4xx_rcc.o ABSOLUTE
    ..\FWLIB\src\stm32f4xx_sdio.c            0x00000000   Number         0  stm32f4xx_sdio.o ABSOLUTE
    ..\FWLIB\src\stm32f4xx_spi.c             0x00000000   Number         0  stm32f4xx_spi.o ABSOLUTE
    ..\FWLIB\src\stm32f4xx_syscfg.c          0x00000000   Number         0  stm32f4xx_syscfg.o ABSOLUTE
    ..\FWLIB\src\stm32f4xx_tim.c             0x00000000   Number         0  stm32f4xx_tim.o ABSOLUTE
    ..\FWLIB\src\stm32f4xx_usart.c           0x00000000   Number         0  stm32f4xx_usart.o ABSOLUTE
    ..\GUI\button.c                          0x00000000   Number         0  button.o ABSOLUTE
    ..\GUI\edit.c                            0x00000000   Number         0  edit.o ABSOLUTE
    ..\GUI\filelistbox.c                     0x00000000   Number         0  filelistbox.o ABSOLUTE
    ..\GUI\gui.c                             0x00000000   Number         0  gui.o ABSOLUTE
    ..\GUI\listbox.c                         0x00000000   Number         0  listbox.o ABSOLUTE
    ..\GUI\memo.c                            0x00000000   Number         0  memo.o ABSOLUTE
    ..\GUI\progressbar.c                     0x00000000   Number         0  progressbar.o ABSOLUTE
    ..\GUI\scrollbar.c                       0x00000000   Number         0  scrollbar.o ABSOLUTE
    ..\GUI\window.c                          0x00000000   Number         0  window.o ABSOLUTE
    ..\HARDWARE\24CXX\24cxx.c                0x00000000   Number         0  24cxx.o ABSOLUTE
    ..\HARDWARE\I2S\i2s.c                    0x00000000   Number         0  i2s.o ABSOLUTE
    ..\HARDWARE\IIC\myiic.c                  0x00000000   Number         0  myiic.o ABSOLUTE
    ..\HARDWARE\KEY\key.c                    0x00000000   Number         0  key.o ABSOLUTE
    ..\HARDWARE\LCD\lcd.c                    0x00000000   Number         0  lcd.o ABSOLUTE
    ..\HARDWARE\LED\led.c                    0x00000000   Number         0  led.o ABSOLUTE
    ..\HARDWARE\SDIO\sdio_sdcard.c           0x00000000   Number         0  sdio_sdcard.o ABSOLUTE
    ..\HARDWARE\SPI\spi.c                    0x00000000   Number         0  spi.o ABSOLUTE
    ..\HARDWARE\SRAM\sram.c                  0x00000000   Number         0  sram.o ABSOLUTE
    ..\HARDWARE\TIMER\timer.c                0x00000000   Number         0  timer.o ABSOLUTE
    ..\HARDWARE\TOUCH\ctiic.c                0x00000000   Number         0  ctiic.o ABSOLUTE
    ..\HARDWARE\TOUCH\ft5206.c               0x00000000   Number         0  ft5206.o ABSOLUTE
    ..\HARDWARE\TOUCH\gt9147.c               0x00000000   Number         0  gt9147.o ABSOLUTE
    ..\HARDWARE\TOUCH\ott2001a.c             0x00000000   Number         0  ott2001a.o ABSOLUTE
    ..\HARDWARE\TOUCH\touch.c                0x00000000   Number         0  touch.o ABSOLUTE
    ..\HARDWARE\W25QXX\w25qxx.c              0x00000000   Number         0  w25qxx.o ABSOLUTE
    ..\HARDWARE\WM8978\wm8978.c              0x00000000   Number         0  wm8978.o ABSOLUTE
    ..\MALLOC\malloc.c                       0x00000000   Number         0  malloc.o ABSOLUTE
    ..\MJPEG\JPEG\jaricom.c                  0x00000000   Number         0  jaricom.o ABSOLUTE
    ..\MJPEG\JPEG\jcomapi.c                  0x00000000   Number         0  jcomapi.o ABSOLUTE
    ..\MJPEG\JPEG\jdapimin.c                 0x00000000   Number         0  jdapimin.o ABSOLUTE
    ..\MJPEG\JPEG\jdapistd.c                 0x00000000   Number         0  jdapistd.o ABSOLUTE
    ..\MJPEG\JPEG\jdarith.c                  0x00000000   Number         0  jdarith.o ABSOLUTE
    ..\MJPEG\JPEG\jdcoefct.c                 0x00000000   Number         0  jdcoefct.o ABSOLUTE
    ..\MJPEG\JPEG\jdcolor.c                  0x00000000   Number         0  jdcolor.o ABSOLUTE
    ..\MJPEG\JPEG\jddctmgr.c                 0x00000000   Number         0  jddctmgr.o ABSOLUTE
    ..\MJPEG\JPEG\jdhuff.c                   0x00000000   Number         0  jdhuff.o ABSOLUTE
    ..\MJPEG\JPEG\jdinput.c                  0x00000000   Number         0  jdinput.o ABSOLUTE
    ..\MJPEG\JPEG\jdmainct.c                 0x00000000   Number         0  jdmainct.o ABSOLUTE
    ..\MJPEG\JPEG\jdmarker.c                 0x00000000   Number         0  jdmarker.o ABSOLUTE
    ..\MJPEG\JPEG\jdmaster.c                 0x00000000   Number         0  jdmaster.o ABSOLUTE
    ..\MJPEG\JPEG\jdmerge.c                  0x00000000   Number         0  jdmerge.o ABSOLUTE
    ..\MJPEG\JPEG\jdpostct.c                 0x00000000   Number         0  jdpostct.o ABSOLUTE
    ..\MJPEG\JPEG\jdsample.c                 0x00000000   Number         0  jdsample.o ABSOLUTE
    ..\MJPEG\JPEG\jerror.c                   0x00000000   Number         0  jerror.o ABSOLUTE
    ..\MJPEG\JPEG\jidctflt.c                 0x00000000   Number         0  jidctflt.o ABSOLUTE
    ..\MJPEG\JPEG\jidctfst.c                 0x00000000   Number         0  jidctfst.o ABSOLUTE
    ..\MJPEG\JPEG\jidctint.c                 0x00000000   Number         0  jidctint.o ABSOLUTE
    ..\MJPEG\JPEG\jmemmgr.c                  0x00000000   Number         0  jmemmgr.o ABSOLUTE
    ..\MJPEG\JPEG\jmemnobs.c                 0x00000000   Number         0  jmemnobs.o ABSOLUTE
    ..\MJPEG\JPEG\jquant1.c                  0x00000000   Number         0  jquant1.o ABSOLUTE
    ..\MJPEG\JPEG\jquant2.c                  0x00000000   Number         0  jquant2.o ABSOLUTE
    ..\MJPEG\JPEG\jutils.c                   0x00000000   Number         0  jutils.o ABSOLUTE
    ..\MJPEG\JPEG\wrppm.c                    0x00000000   Number         0  wrppm.o ABSOLUTE
    ..\MJPEG\avi.c                           0x00000000   Number         0  avi.o ABSOLUTE
    ..\MJPEG\mjpeg.c                         0x00000000   Number         0  mjpeg.o ABSOLUTE
    ..\PICTURE\bmp.c                         0x00000000   Number         0  bmp.o ABSOLUTE
    ..\PICTURE\gif.c                         0x00000000   Number         0  gif.o ABSOLUTE
    ..\PICTURE\piclib.c                      0x00000000   Number         0  piclib.o ABSOLUTE
    ..\PICTURE\tjpgd.c                       0x00000000   Number         0  tjpgd.o ABSOLUTE
    ..\SYSTEM\delay\delay.c                  0x00000000   Number         0  delay.o ABSOLUTE
    ..\SYSTEM\sys\sys.c                      0x00000000   Number         0  sys.o ABSOLUTE
    ..\SYSTEM\usart\usart.c                  0x00000000   Number         0  usart.o ABSOLUTE
    ..\TEXT\fontupd.c                        0x00000000   Number         0  fontupd.o ABSOLUTE
    ..\TEXT\text.c                           0x00000000   Number         0  text.o ABSOLUTE
    ..\UCOSII\CORE\os_core.c                 0x00000000   Number         0  os_core.o ABSOLUTE
    ..\UCOSII\CORE\os_flag.c                 0x00000000   Number         0  os_flag.o ABSOLUTE
    ..\UCOSII\CORE\os_mbox.c                 0x00000000   Number         0  os_mbox.o ABSOLUTE
    ..\UCOSII\CORE\os_mem.c                  0x00000000   Number         0  os_mem.o ABSOLUTE
    ..\UCOSII\CORE\os_mutex.c                0x00000000   Number         0  os_mutex.o ABSOLUTE
    ..\UCOSII\CORE\os_q.c                    0x00000000   Number         0  os_q.o ABSOLUTE
    ..\UCOSII\CORE\os_sem.c                  0x00000000   Number         0  os_sem.o ABSOLUTE
    ..\UCOSII\CORE\os_task.c                 0x00000000   Number         0  os_task.o ABSOLUTE
    ..\UCOSII\CORE\os_time.c                 0x00000000   Number         0  os_time.o ABSOLUTE
    ..\UCOSII\CORE\os_tmr.c                  0x00000000   Number         0  os_tmr.o ABSOLUTE
    ..\UCOSII\PORT\os_cpu_a.asm              0x00000000   Number         0  os_cpu_a.o ABSOLUTE
    ..\UCOSII\PORT\os_cpu_c.c                0x00000000   Number         0  os_cpu_c.o ABSOLUTE
    ..\USMART\usmart.c                       0x00000000   Number         0  usmart.o ABSOLUTE
    ..\USMART\usmart_config.c                0x00000000   Number         0  usmart_config.o ABSOLUTE
    ..\USMART\usmart_str.c                   0x00000000   Number         0  usmart_str.o ABSOLUTE
    ..\\APP\\audioplay.c                     0x00000000   Number         0  audioplay.o ABSOLUTE
    ..\\APP\\videoplayer.c                   0x00000000   Number         0  videoplayer.o ABSOLUTE
    ..\\AUDIOCODEC\\wav\\wavplay.c           0x00000000   Number         0  wavplay.o ABSOLUTE
    ..\\FATFS\\exfuns\\exfuns.c              0x00000000   Number         0  exfuns.o ABSOLUTE
    ..\\FATFS\\exfuns\\fattester.c           0x00000000   Number         0  fattester.o ABSOLUTE
    ..\\FATFS\\exfuns\\mycc936.c             0x00000000   Number         0  mycc936.o ABSOLUTE
    ..\\FATFS\\src\\diskio.c                 0x00000000   Number         0  diskio.o ABSOLUTE
    ..\\FWLIB\\src\\misc.c                   0x00000000   Number         0  misc.o ABSOLUTE
    ..\\FWLIB\\src\\stm32f4xx_dma.c          0x00000000   Number         0  stm32f4xx_dma.o ABSOLUTE
    ..\\FWLIB\\src\\stm32f4xx_fsmc.c         0x00000000   Number         0  stm32f4xx_fsmc.o ABSOLUTE
    ..\\FWLIB\\src\\stm32f4xx_gpio.c         0x00000000   Number         0  stm32f4xx_gpio.o ABSOLUTE
    ..\\FWLIB\\src\\stm32f4xx_rcc.c          0x00000000   Number         0  stm32f4xx_rcc.o ABSOLUTE
    ..\\FWLIB\\src\\stm32f4xx_sdio.c         0x00000000   Number         0  stm32f4xx_sdio.o ABSOLUTE
    ..\\FWLIB\\src\\stm32f4xx_spi.c          0x00000000   Number         0  stm32f4xx_spi.o ABSOLUTE
    ..\\FWLIB\\src\\stm32f4xx_syscfg.c       0x00000000   Number         0  stm32f4xx_syscfg.o ABSOLUTE
    ..\\FWLIB\\src\\stm32f4xx_tim.c          0x00000000   Number         0  stm32f4xx_tim.o ABSOLUTE
    ..\\FWLIB\\src\\stm32f4xx_usart.c        0x00000000   Number         0  stm32f4xx_usart.o ABSOLUTE
    ..\\GUI\\button.c                        0x00000000   Number         0  button.o ABSOLUTE
    ..\\GUI\\edit.c                          0x00000000   Number         0  edit.o ABSOLUTE
    ..\\GUI\\filelistbox.c                   0x00000000   Number         0  filelistbox.o ABSOLUTE
    ..\\GUI\\gui.c                           0x00000000   Number         0  gui.o ABSOLUTE
    ..\\GUI\\listbox.c                       0x00000000   Number         0  listbox.o ABSOLUTE
    ..\\GUI\\memo.c                          0x00000000   Number         0  memo.o ABSOLUTE
    ..\\GUI\\progressbar.c                   0x00000000   Number         0  progressbar.o ABSOLUTE
    ..\\GUI\\scrollbar.c                     0x00000000   Number         0  scrollbar.o ABSOLUTE
    ..\\GUI\\window.c                        0x00000000   Number         0  window.o ABSOLUTE
    ..\\HARDWARE\\24CXX\\24cxx.c             0x00000000   Number         0  24cxx.o ABSOLUTE
    ..\\HARDWARE\\I2S\\i2s.c                 0x00000000   Number         0  i2s.o ABSOLUTE
    ..\\HARDWARE\\IIC\\myiic.c               0x00000000   Number         0  myiic.o ABSOLUTE
    ..\\HARDWARE\\KEY\\key.c                 0x00000000   Number         0  key.o ABSOLUTE
    ..\\HARDWARE\\LCD\\lcd.c                 0x00000000   Number         0  lcd.o ABSOLUTE
    ..\\HARDWARE\\LED\\led.c                 0x00000000   Number         0  led.o ABSOLUTE
    ..\\HARDWARE\\SDIO\\sdio_sdcard.c        0x00000000   Number         0  sdio_sdcard.o ABSOLUTE
    ..\\HARDWARE\\SPI\\spi.c                 0x00000000   Number         0  spi.o ABSOLUTE
    ..\\HARDWARE\\SRAM\\sram.c               0x00000000   Number         0  sram.o ABSOLUTE
    ..\\HARDWARE\\TIMER\\timer.c             0x00000000   Number         0  timer.o ABSOLUTE
    ..\\HARDWARE\\TOUCH\\ctiic.c             0x00000000   Number         0  ctiic.o ABSOLUTE
    ..\\HARDWARE\\TOUCH\\ft5206.c            0x00000000   Number         0  ft5206.o ABSOLUTE
    ..\\HARDWARE\\TOUCH\\gt9147.c            0x00000000   Number         0  gt9147.o ABSOLUTE
    ..\\HARDWARE\\TOUCH\\ott2001a.c          0x00000000   Number         0  ott2001a.o ABSOLUTE
    ..\\HARDWARE\\TOUCH\\touch.c             0x00000000   Number         0  touch.o ABSOLUTE
    ..\\HARDWARE\\W25QXX\\w25qxx.c           0x00000000   Number         0  w25qxx.o ABSOLUTE
    ..\\HARDWARE\\WM8978\\wm8978.c           0x00000000   Number         0  wm8978.o ABSOLUTE
    ..\\MALLOC\\malloc.c                     0x00000000   Number         0  malloc.o ABSOLUTE
    ..\\MJPEG\\JPEG\\jdmerge.c               0x00000000   Number         0  jdmerge.o ABSOLUTE
    ..\\MJPEG\\JPEG\\jmemnobs.c              0x00000000   Number         0  jmemnobs.o ABSOLUTE
    ..\\MJPEG\\avi.c                         0x00000000   Number         0  avi.o ABSOLUTE
    ..\\MJPEG\\mjpeg.c                       0x00000000   Number         0  mjpeg.o ABSOLUTE
    ..\\PICTURE\\bmp.c                       0x00000000   Number         0  bmp.o ABSOLUTE
    ..\\PICTURE\\gif.c                       0x00000000   Number         0  gif.o ABSOLUTE
    ..\\PICTURE\\piclib.c                    0x00000000   Number         0  piclib.o ABSOLUTE
    ..\\PICTURE\\tjpgd.c                     0x00000000   Number         0  tjpgd.o ABSOLUTE
    ..\\SYSTEM\\delay\\delay.c               0x00000000   Number         0  delay.o ABSOLUTE
    ..\\SYSTEM\\sys\\sys.c                   0x00000000   Number         0  sys.o ABSOLUTE
    ..\\SYSTEM\\usart\\usart.c               0x00000000   Number         0  usart.o ABSOLUTE
    ..\\TEXT\\fontupd.c                      0x00000000   Number         0  fontupd.o ABSOLUTE
    ..\\TEXT\\text.c                         0x00000000   Number         0  text.o ABSOLUTE
    ..\\UCOSII\\CORE\\os_core.c              0x00000000   Number         0  os_core.o ABSOLUTE
    ..\\UCOSII\\CORE\\os_flag.c              0x00000000   Number         0  os_flag.o ABSOLUTE
    ..\\UCOSII\\CORE\\os_mbox.c              0x00000000   Number         0  os_mbox.o ABSOLUTE
    ..\\UCOSII\\CORE\\os_mem.c               0x00000000   Number         0  os_mem.o ABSOLUTE
    ..\\UCOSII\\CORE\\os_mutex.c             0x00000000   Number         0  os_mutex.o ABSOLUTE
    ..\\UCOSII\\CORE\\os_q.c                 0x00000000   Number         0  os_q.o ABSOLUTE
    ..\\UCOSII\\CORE\\os_sem.c               0x00000000   Number         0  os_sem.o ABSOLUTE
    ..\\UCOSII\\CORE\\os_task.c              0x00000000   Number         0  os_task.o ABSOLUTE
    ..\\UCOSII\\CORE\\os_time.c              0x00000000   Number         0  os_time.o ABSOLUTE
    ..\\UCOSII\\CORE\\os_tmr.c               0x00000000   Number         0  os_tmr.o ABSOLUTE
    ..\\UCOSII\\PORT\\os_cpu_c.c             0x00000000   Number         0  os_cpu_c.o ABSOLUTE
    ..\\USMART\\usmart.c                     0x00000000   Number         0  usmart.o ABSOLUTE
    ..\\USMART\\usmart_config.c              0x00000000   Number         0  usmart_config.o ABSOLUTE
    ..\\USMART\\usmart_str.c                 0x00000000   Number         0  usmart_str.o ABSOLUTE
    cdcmple.s                                0x00000000   Number         0  cdcmple.o ABSOLUTE
    cdrcmple.s                               0x00000000   Number         0  cdrcmple.o ABSOLUTE
    dc.s                                     0x00000000   Number         0  dc.o ABSOLUTE
    handlers.s                               0x00000000   Number         0  handlers.o ABSOLUTE
    init.s                                   0x00000000   Number         0  init.o ABSOLUTE
    main.c                                   0x00000000   Number         0  main.o ABSOLUTE
    main.c                                   0x00000000   Number         0  main.o ABSOLUTE
    stm32f4xx_it.c                           0x00000000   Number         0  stm32f4xx_it.o ABSOLUTE
    stm32f4xx_it.c                           0x00000000   Number         0  stm32f4xx_it.o ABSOLUTE
    system_stm32f4xx.c                       0x00000000   Number         0  system_stm32f4xx.o ABSOLUTE
    system_stm32f4xx.c                       0x00000000   Number         0  system_stm32f4xx.o ABSOLUTE
    RESET                                    0x08000000   Section      392  startup_stm32f40_41xxx.o(RESET)
    .ARM.Collect$$$$00000000                 0x08000188   Section        0  entry.o(.ARM.Collect$$$$00000000)
    .ARM.Collect$$$$00000001                 0x08000188   Section        4  entry2.o(.ARM.Collect$$$$00000001)
    .ARM.Collect$$$$00000004                 0x0800018c   Section        4  entry5.o(.ARM.Collect$$$$00000004)
    .ARM.Collect$$$$00000008                 0x08000190   Section        0  entry7b.o(.ARM.Collect$$$$00000008)
    .ARM.Collect$$$$0000000A                 0x08000190   Section        0  entry8b.o(.ARM.Collect$$$$0000000A)
    .ARM.Collect$$$$0000000B                 0x08000190   Section        8  entry9a.o(.ARM.Collect$$$$0000000B)
    .ARM.Collect$$$$0000000D                 0x08000198   Section        0  entry10a.o(.ARM.Collect$$$$0000000D)
    .ARM.Collect$$$$0000000F                 0x08000198   Section        0  entry11a.o(.ARM.Collect$$$$0000000F)
    .ARM.Collect$$$$00002712                 0x08000198   Section        4  entry2.o(.ARM.Collect$$$$00002712)
    __lit__00000000                          0x08000198   Data           4  entry2.o(.ARM.Collect$$$$00002712)
    .emb_text                                0x0800019c   Section       16  sys.o(.emb_text)
    $v0                                      0x0800019c   Number         0  sys.o(.emb_text)
    .text                                    0x080001ac   Section        0  stm32f4xx_it.o(.text)
    .text                                    0x080001c4   Section        0  system_stm32f4xx.o(.text)
    SetSysClock                              0x080001c5   Thumb Code   220  system_stm32f4xx.o(.text)
    .text                                    0x080003d4   Section        0  main.o(.text)
    .text                                    0x080005e0   Section        0  lcd.o(.text)
    .text                                    0x08005778   Section        0  key.o(.text)
    .text                                    0x0800587c   Section        0  spi.o(.text)
    .text                                    0x08005994   Section        0  w25qxx.o(.text)
    .text                                    0x08005d18   Section        0  sdio_sdcard.o(.text)
    .text                                    0x08007a78   Section        0  myiic.o(.text)
    .text                                    0x08007cd4   Section        0  24cxx.o(.text)
    .text                                    0x08007e50   Section        0  i2s.o(.text)
    .text                                    0x08008188   Section        0  wm8978.o(.text)
    .text                                    0x080085ac   Section        0  timer.o(.text)
    .text                                    0x080086bc   Section        0  ctiic.o(.text)
    .text                                    0x08008910   Section        0  ft5206.o(.text)
    .text                                    0x08008c3c   Section        0  gt9147.o(.text)
    .text                                    0x08009084   Section        0  ott2001a.o(.text)
    .text                                    0x0800940c   Section        0  touch.o(.text)
    .text                                    0x0800a4bc   Section        0  sram.o(.text)
    .text                                    0x0800a7d8   Section        0  delay.o(.text)
    .text                                    0x0800a900   Section        0  usart.o(.text)
    .text                                    0x0800aa50   Section       36  startup_stm32f40_41xxx.o(.text)
    $v0                                      0x0800aa50   Number         0  startup_stm32f40_41xxx.o(.text)
    .text                                    0x0800aa74   Section        0  misc.o(.text)
    .text                                    0x0800ab54   Section        0  stm32f4xx_gpio.o(.text)
    .text                                    0x0800ade8   Section        0  stm32f4xx_fsmc.o(.text)
    .text                                    0x0800b3b0   Section        0  stm32f4xx_rcc.o(.text)
    .text                                    0x0800ba0c   Section        0  stm32f4xx_usart.o(.text)
    .text                                    0x0800be60   Section        0  stm32f4xx_tim.o(.text)
    TI4_Config                               0x0800c5ff   Thumb Code    80  stm32f4xx_tim.o(.text)
    TI3_Config                               0x0800c661   Thumb Code    72  stm32f4xx_tim.o(.text)
    TI2_Config                               0x0800c6c3   Thumb Code    90  stm32f4xx_tim.o(.text)
    TI1_Config                               0x0800c72f   Thumb Code    58  stm32f4xx_tim.o(.text)
    .text                                    0x0800cb04   Section        0  stm32f4xx_spi.o(.text)
    .text                                    0x0800cf84   Section        0  stm32f4xx_sdio.o(.text)
    .text                                    0x0800d160   Section        0  stm32f4xx_dma.o(.text)
    .text                                    0x0800d508   Section        0  malloc.o(.text)
    .text                                    0x0800d768   Section        0  usmart.o(.text)
    .text                                    0x0800e39c   Section        0  usmart_str.o(.text)
    .text                                    0x0800e8c4   Section        0  diskio.o(.text)
    .text                                    0x0800eac4   Section        0  ff.o(.text)
    mem_cpy                                  0x0800eac5   Thumb Code    26  ff.o(.text)
    mem_set                                  0x0800eadf   Thumb Code    20  ff.o(.text)
    mem_cmp                                  0x0800eaf3   Thumb Code    38  ff.o(.text)
    chk_chr                                  0x0800eb19   Thumb Code    20  ff.o(.text)
    sync_window                              0x0800eb2d   Thumb Code    76  ff.o(.text)
    move_window                              0x0800eb79   Thumb Code    50  ff.o(.text)
    sync_fs                                  0x0800ebab   Thumb Code   200  ff.o(.text)
    remove_chain                             0x0800eeab   Thumb Code   108  ff.o(.text)
    create_chain                             0x0800ef17   Thumb Code   214  ff.o(.text)
    clmt_clust                               0x0800efed   Thumb Code    50  ff.o(.text)
    dir_next                                 0x0800f0bd   Thumb Code   272  ff.o(.text)
    dir_alloc                                0x0800f1cd   Thumb Code    92  ff.o(.text)
    ld_clust                                 0x0800f229   Thumb Code    32  ff.o(.text)
    st_clust                                 0x0800f249   Thumb Code    16  ff.o(.text)
    cmp_lfn                                  0x0800f259   Thumb Code   138  ff.o(.text)
    pick_lfn                                 0x0800f2e3   Thumb Code   112  ff.o(.text)
    fit_lfn                                  0x0800f353   Thumb Code   122  ff.o(.text)
    gen_numname                              0x0800f3cd   Thumb Code   194  ff.o(.text)
    sum_sfn                                  0x0800f48f   Thumb Code    32  ff.o(.text)
    dir_find                                 0x0800f4af   Thumb Code   234  ff.o(.text)
    dir_read                                 0x0800f599   Thumb Code   204  ff.o(.text)
    dir_register                             0x0800f665   Thumb Code   298  ff.o(.text)
    dir_remove                               0x0800f78f   Thumb Code   106  ff.o(.text)
    get_fileinfo                             0x0800f7f9   Thumb Code   268  ff.o(.text)
    create_name                              0x0800f905   Thumb Code   604  ff.o(.text)
    follow_path                              0x0800fb61   Thumb Code   144  ff.o(.text)
    get_ldnumber                             0x0800fbf1   Thumb Code    74  ff.o(.text)
    check_fs                                 0x0800fc3b   Thumb Code   140  ff.o(.text)
    find_volume                              0x0800fcc7   Thumb Code   916  ff.o(.text)
    validate                                 0x0801005b   Thumb Code    54  ff.o(.text)
    putc_bfd                                 0x080119ef   Thumb Code    68  ff.o(.text)
    .text                                    0x08011d60   Section        0  exfuns.o(.text)
    .text                                    0x08011ef8   Section        0  fattester.o(.text)
    .text                                    0x080128c4   Section        0  mycc936.o(.text)
    .text                                    0x08012990   Section        0  fontupd.o(.text)
    .text                                    0x08012f70   Section        0  text.o(.text)
    .text                                    0x08013244   Section        0  videoplayer.o(.text)
    .text                                    0x08013fd4   Section        0  avi.o(.text)
    .text                                    0x0801444c   Section        0  mjpeg.o(.text)
    my_error_exit                            0x08014479   Thumb Code    22  mjpeg.o(.text)
    my_emit_message                          0x0801448f   Thumb Code    32  mjpeg.o(.text)
    init_source                              0x080144af   Thumb Code     2  mjpeg.o(.text)
    fill_input_buffer                        0x080144b1   Thumb Code    78  mjpeg.o(.text)
    skip_input_data                          0x080144ff   Thumb Code    56  mjpeg.o(.text)
    term_source                              0x08014537   Thumb Code     2  mjpeg.o(.text)
    jpeg_filerw_src_init                     0x08014539   Thumb Code    64  mjpeg.o(.text)
    .text                                    0x08014744   Section        0  jcomapi.o(.text)
    .text                                    0x080147cc   Section        0  jutils.o(.text)
    .text                                    0x08014840   Section        0  jerror.o(.text)
    error_exit                               0x08014841   Thumb Code    20  jerror.o(.text)
    output_message                           0x08014855   Thumb Code    28  jerror.o(.text)
    emit_message                             0x08014871   Thumb Code    50  jerror.o(.text)
    format_message                           0x080148a3   Thumb Code   172  jerror.o(.text)
    reset_error_mgr                          0x0801494f   Thumb Code    12  jerror.o(.text)
    .text                                    0x080149a8   Section        0  jmemmgr.o(.text)
    out_of_memory                            0x080149a9   Thumb Code    26  jmemmgr.o(.text)
    alloc_small                              0x080149c3   Thumb Code   268  jmemmgr.o(.text)
    alloc_large                              0x08014acf   Thumb Code   138  jmemmgr.o(.text)
    alloc_sarray                             0x08014b59   Thumb Code   144  jmemmgr.o(.text)
    alloc_barray                             0x08014be9   Thumb Code   146  jmemmgr.o(.text)
    request_virt_sarray                      0x08014c7b   Thumb Code    94  jmemmgr.o(.text)
    request_virt_barray                      0x08014cd9   Thumb Code    94  jmemmgr.o(.text)
    realize_virt_arrays                      0x08014d37   Thumb Code   330  jmemmgr.o(.text)
    do_sarray_io                             0x08014e81   Thumb Code   168  jmemmgr.o(.text)
    do_barray_io                             0x08014f29   Thumb Code   170  jmemmgr.o(.text)
    access_virt_sarray                       0x08014fd3   Thumb Code   280  jmemmgr.o(.text)
    access_virt_barray                       0x080150eb   Thumb Code   282  jmemmgr.o(.text)
    free_pool                                0x08015205   Thumb Code   246  jmemmgr.o(.text)
    self_destruct                            0x080152fb   Thumb Code    44  jmemmgr.o(.text)
    .text                                    0x0801545c   Section        0  jdapimin.o(.text)
    default_decompress_parms                 0x08015531   Thumb Code   438  jdapimin.o(.text)
    .text                                    0x080158c4   Section        0  jdapistd.o(.text)
    output_pass_setup                        0x080158c5   Thumb Code   148  jdapistd.o(.text)
    .text                                    0x08015bb0   Section        0  jdarith.o(.text)
    get_byte                                 0x08015bb1   Thumb Code    48  jdarith.o(.text)
    arith_decode                             0x08015be1   Thumb Code   270  jdarith.o(.text)
    process_restart                          0x08015cef   Thumb Code   172  jdarith.o(.text)
    decode_mcu_DC_first                      0x08015d9b   Thumb Code   410  jdarith.o(.text)
    decode_mcu_AC_first                      0x08015f35   Thumb Code   372  jdarith.o(.text)
    decode_mcu_DC_refine                     0x080160a9   Thumb Code    96  jdarith.o(.text)
    decode_mcu_AC_refine                     0x08016109   Thumb Code   318  jdarith.o(.text)
    decode_mcu                               0x08016247   Thumb Code   704  jdarith.o(.text)
    start_pass                               0x08016507   Thumb Code   666  jdarith.o(.text)
    finish_pass                              0x080167a1   Thumb Code     2  jdarith.o(.text)
    .text                                    0x08016840   Section        0  jdmaster.o(.text)
    use_merged_upsample                      0x08016841   Thumb Code   222  jdmaster.o(.text)
    prepare_range_limit_table                0x08016a97   Thumb Code    98  jdmaster.o(.text)
    master_selection                         0x08016af9   Thumb Code   492  jdmaster.o(.text)
    prepare_for_output_pass                  0x08016ce5   Thumb Code   284  jdmaster.o(.text)
    finish_output_pass                       0x08016e01   Thumb Code    32  jdmaster.o(.text)
    .text                                    0x08016eac   Section        0  jdinput.o(.text)
    initial_setup                            0x080172ab   Thumb Code   930  jdinput.o(.text)
    per_scan_setup                           0x0801764d   Thumb Code   340  jdinput.o(.text)
    latch_quant_tables                       0x080177a1   Thumb Code   112  jdinput.o(.text)
    start_input_pass                         0x08017811   Thumb Code    50  jdinput.o(.text)
    consume_markers                          0x08017843   Thumb Code   172  jdinput.o(.text)
    finish_input_pass                        0x080178ef   Thumb Code    24  jdinput.o(.text)
    reset_input_controller                   0x08017907   Thumb Code    48  jdinput.o(.text)
    .text                                    0x08017978   Section        0  jdmarker.o(.text)
    get_soi                                  0x08017979   Thumb Code   122  jdmarker.o(.text)
    get_sof                                  0x080179f3   Thumb Code   738  jdmarker.o(.text)
    get_sos                                  0x08017cd5   Thumb Code   694  jdmarker.o(.text)
    get_dac                                  0x08017f8b   Thumb Code   334  jdmarker.o(.text)
    get_dht                                  0x080180d9   Thumb Code   626  jdmarker.o(.text)
    get_dqt                                  0x0801834b   Thumb Code   718  jdmarker.o(.text)
    get_dri                                  0x08018619   Thumb Code   184  jdmarker.o(.text)
    get_lse                                  0x080186d1   Thumb Code   954  jdmarker.o(.text)
    examine_app0                             0x08018a8b   Thumb Code   446  jdmarker.o(.text)
    examine_app14                            0x08018c49   Thumb Code   154  jdmarker.o(.text)
    get_interesting_appn                     0x08018ce3   Thumb Code   264  jdmarker.o(.text)
    save_marker                              0x08018deb   Thumb Code   492  jdmarker.o(.text)
    skip_variable                            0x08018fd7   Thumb Code   142  jdmarker.o(.text)
    next_marker                              0x08019065   Thumb Code   226  jdmarker.o(.text)
    first_marker                             0x08019147   Thumb Code   120  jdmarker.o(.text)
    read_markers                             0x080191bf   Thumb Code   634  jdmarker.o(.text)
    read_restart_marker                      0x08019439   Thumb Code   114  jdmarker.o(.text)
    reset_marker_reader                      0x0801956b   Thumb Code    28  jdmarker.o(.text)
    .text                                    0x080196c0   Section        0  jdhuff.o(.text)
    jpeg_make_d_derived_tbl                  0x080196c1   Thumb Code   572  jdhuff.o(.text)
    jpeg_fill_bit_buffer                     0x080198fd   Thumb Code   222  jdhuff.o(.text)
    jpeg_huff_decode                         0x080199db   Thumb Code   182  jdhuff.o(.text)
    finish_pass_huff                         0x08019a91   Thumb Code    36  jdhuff.o(.text)
    process_restart                          0x08019ab5   Thumb Code    80  jdhuff.o(.text)
    decode_mcu_DC_first                      0x08019b05   Thumb Code   412  jdhuff.o(.text)
    decode_mcu_AC_first                      0x08019ca1   Thumb Code   474  jdhuff.o(.text)
    decode_mcu_DC_refine                     0x08019e7b   Thumb Code   174  jdhuff.o(.text)
    decode_mcu_AC_refine                     0x08019f29   Thumb Code   786  jdhuff.o(.text)
    decode_mcu_sub                           0x0801a23b   Thumb Code   918  jdhuff.o(.text)
    decode_mcu                               0x0801a5d1   Thumb Code   904  jdhuff.o(.text)
    start_pass_huff_decoder                  0x0801a959   Thumb Code  1170  jdhuff.o(.text)
    .text                                    0x0801ae9c   Section        0  jdmainct.o(.text)
    alloc_funny_pointers                     0x0801ae9d   Thumb Code   128  jdmainct.o(.text)
    make_funny_pointers                      0x0801af1d   Thumb Code   188  jdmainct.o(.text)
    set_wraparound_pointers                  0x0801afd9   Thumb Code   156  jdmainct.o(.text)
    set_bottom_pointers                      0x0801b075   Thumb Code   134  jdmainct.o(.text)
    process_data_crank_post                  0x0801b0fb   Thumb Code    34  jdmainct.o(.text)
    process_data_simple_main                 0x0801b11d   Thumb Code    96  jdmainct.o(.text)
    process_data_context_main                0x0801b17d   Thumb Code   262  jdmainct.o(.text)
    start_pass_main                          0x0801b283   Thumb Code    86  jdmainct.o(.text)
    .text                                    0x0801b390   Section        0  jdcoefct.o(.text)
    start_iMCU_row                           0x0801b391   Thumb Code    56  jdcoefct.o(.text)
    start_input_pass                         0x0801b3c9   Thumb Code    16  jdcoefct.o(.text)
    decompress_data                          0x0801b3d9   Thumb Code   282  jdcoefct.o(.text)
    decompress_smooth_data                   0x0801b4f3   Thumb Code  1222  jdcoefct.o(.text)
    smoothing_ok                             0x0801b9b9   Thumb Code   178  jdcoefct.o(.text)
    start_output_pass                        0x0801ba6b   Thumb Code    42  jdcoefct.o(.text)
    decompress_onepass                       0x0801ba95   Thumb Code   360  jdcoefct.o(.text)
    dummy_consume_data                       0x0801bbfd   Thumb Code     6  jdcoefct.o(.text)
    consume_data                             0x0801bc03   Thumb Code   294  jdcoefct.o(.text)
    .text                                    0x0801be18   Section        0  jdpostct.o(.text)
    post_process_2pass                       0x0801be19   Thumb Code   148  jdpostct.o(.text)
    post_process_prepass                     0x0801bead   Thumb Code   146  jdpostct.o(.text)
    post_process_1pass                       0x0801bf3f   Thumb Code   104  jdpostct.o(.text)
    start_pass_dpost                         0x0801bfa7   Thumb Code   142  jdpostct.o(.text)
    .text                                    0x0801c0bc   Section        0  jddctmgr.o(.text)
    start_pass                               0x0801c0bd   Thumb Code  1034  jddctmgr.o(.text)
    .text                                    0x0801c5bc   Section        0  jidctfst.o(.text)
    .text                                    0x0801cae0   Section        0  jidctflt.o(.text)
    .text                                    0x0801cf58   Section        0  jidctint.o(.text)
    .text                                    0x08023cdc   Section        0  jdsample.o(.text)
    start_pass_upsample                      0x08023cdd   Thumb Code    16  jdsample.o(.text)
    sep_upsample                             0x08023ced   Thumb Code   204  jdsample.o(.text)
    fullsize_upsample                        0x08023db9   Thumb Code     4  jdsample.o(.text)
    noop_upsample                            0x08023dbd   Thumb Code     8  jdsample.o(.text)
    int_upsample                             0x08023dc5   Thumb Code   156  jdsample.o(.text)
    h2v1_upsample                            0x08023e61   Thumb Code    66  jdsample.o(.text)
    h2v2_upsample                            0x08023ea3   Thumb Code    98  jdsample.o(.text)
    .text                                    0x08024078   Section        0  jdcolor.o(.text)
    build_ycc_rgb_table                      0x08024079   Thumb Code   162  jdcolor.o(.text)
    build_bg_ycc_rgb_table                   0x0802411b   Thumb Code   220  jdcolor.o(.text)
    ycc_rgb_convert                          0x080241f7   Thumb Code   224  jdcolor.o(.text)
    build_rgb_y_table                        0x080242d7   Thumb Code    86  jdcolor.o(.text)
    rgb_gray_convert                         0x0802432d   Thumb Code   150  jdcolor.o(.text)
    rgb1_rgb_convert                         0x080243c3   Thumb Code   116  jdcolor.o(.text)
    rgb1_gray_convert                        0x08024437   Thumb Code   212  jdcolor.o(.text)
    rgb_convert                              0x0802450b   Thumb Code    96  jdcolor.o(.text)
    null_convert                             0x0802456b   Thumb Code    86  jdcolor.o(.text)
    grayscale_convert                        0x080245c1   Thumb Code    38  jdcolor.o(.text)
    gray_rgb_convert                         0x080245e7   Thumb Code    72  jdcolor.o(.text)
    ycck_cmyk_convert                        0x0802462f   Thumb Code   258  jdcolor.o(.text)
    start_pass_dcolor                        0x08024731   Thumb Code     2  jdcolor.o(.text)
    .text                                    0x080249e4   Section        0  jquant2.o(.text)
    prescan_quantize                         0x080249e5   Thumb Code   122  jquant2.o(.text)
    find_biggest_color_pop                   0x08024a5f   Thumb Code    42  jquant2.o(.text)
    find_biggest_volume                      0x08024a89   Thumb Code    36  jquant2.o(.text)
    update_box                               0x08024aad   Thumb Code   590  jquant2.o(.text)
    median_cut                               0x08024cfb   Thumb Code   248  jquant2.o(.text)
    compute_color                            0x08024df3   Thumb Code   258  jquant2.o(.text)
    select_colors                            0x08024ef5   Thumb Code   120  jquant2.o(.text)
    find_nearby_colors                       0x08024f6d   Thumb Code   432  jquant2.o(.text)
    find_best_colors                         0x0802511d   Thumb Code   336  jquant2.o(.text)
    fill_inverse_cmap                        0x0802526d   Thumb Code   190  jquant2.o(.text)
    pass2_no_dither                          0x0802532b   Thumb Code   144  jquant2.o(.text)
    pass2_fs_dither                          0x080253bb   Thumb Code   486  jquant2.o(.text)
    init_error_limit                         0x080255a1   Thumb Code   114  jquant2.o(.text)
    finish_pass1                             0x08025613   Thumb Code    26  jquant2.o(.text)
    finish_pass2                             0x0802562d   Thumb Code     2  jquant2.o(.text)
    start_pass_2_quant                       0x0802562f   Thumb Code   218  jquant2.o(.text)
    new_color_map_2_quant                    0x08025709   Thumb Code    10  jquant2.o(.text)
    .text                                    0x08025824   Section        0  jquant1.o(.text)
    select_ncolors                           0x08025825   Thumb Code   184  jquant1.o(.text)
    output_value                             0x080258dd   Thumb Code    26  jquant1.o(.text)
    largest_input_value                      0x080258f7   Thumb Code    22  jquant1.o(.text)
    create_colormap                          0x0802590d   Thumb Code   252  jquant1.o(.text)
    create_colorindex                        0x08025a09   Thumb Code   220  jquant1.o(.text)
    make_odither_array                       0x08025ae5   Thumb Code   102  jquant1.o(.text)
    create_odither_tables                    0x08025b4b   Thumb Code    96  jquant1.o(.text)
    color_quantize                           0x08025bab   Thumb Code    98  jquant1.o(.text)
    color_quantize3                          0x08025c0d   Thumb Code   136  jquant1.o(.text)
    quantize_ord_dither                      0x08025c95   Thumb Code   186  jquant1.o(.text)
    quantize3_ord_dither                     0x08025d4f   Thumb Code   216  jquant1.o(.text)
    quantize_fs_dither                       0x08025e27   Thumb Code   342  jquant1.o(.text)
    alloc_fs_workspace                       0x08025f7d   Thumb Code    52  jquant1.o(.text)
    start_pass_1_quant                       0x08025fb1   Thumb Code   172  jquant1.o(.text)
    finish_pass_1_quant                      0x0802605d   Thumb Code     2  jquant1.o(.text)
    new_color_map_1_quant                    0x0802605f   Thumb Code    20  jquant1.o(.text)
    .text                                    0x08026110   Section        0  jdmerge.o(.text)
    build_ycc_rgb_table                      0x08026111   Thumb Code   156  jdmerge.o(.text)
    start_pass_merged_upsample               0x080261ad   Thumb Code    16  jdmerge.o(.text)
    merged_2v_upsample                       0x080261bd   Thumb Code   112  jdmerge.o(.text)
    merged_1v_upsample                       0x0802622d   Thumb Code    58  jdmerge.o(.text)
    h2v1_merged_upsample                     0x08026267   Thumb Code   422  jdmerge.o(.text)
    h2v2_merged_upsample                     0x0802640d   Thumb Code   772  jdmerge.o(.text)
    .text                                    0x08026770   Section        0  jmemnobs.o(.text)
    .text                                    0x080267b8   Section        0  bmp.o(.text)
    .text                                    0x08027018   Section        0  gif.o(.text)
    .text                                    0x08027eb8   Section        0  piclib.o(.text)
    .text                                    0x0802817c   Section        0  tjpgd.o(.text)
    alloc_pool                               0x0802817d   Thumb Code    30  tjpgd.o(.text)
    create_qt_tbl                            0x0802819b   Thumb Code   108  tjpgd.o(.text)
    create_huffman_tbl                       0x08028207   Thumb Code   308  tjpgd.o(.text)
    bitext                                   0x0802833b   Thumb Code   144  tjpgd.o(.text)
    huffext                                  0x080283cb   Thumb Code   192  tjpgd.o(.text)
    block_idct                               0x0802848b   Thumb Code   686  tjpgd.o(.text)
    mcu_load                                 0x08028739   Thumb Code   478  tjpgd.o(.text)
    mcu_output                               0x08028917   Thumb Code   918  tjpgd.o(.text)
    restart                                  0x08028cad   Thumb Code   112  tjpgd.o(.text)
    .text                                    0x080293ec   Section        0  os_core.o(.text)
    OS_InitTaskStat                          0x08029497   Thumb Code    52  os_core.o(.text)
    OS_InitTaskIdle                          0x080294ed   Thumb Code    52  os_core.o(.text)
    OS_InitEventList                         0x08029533   Thumb Code    74  os_core.o(.text)
    OS_InitTCBList                           0x0802957d   Thumb Code   106  os_core.o(.text)
    OS_InitRdyList                           0x080295e7   Thumb Code    44  os_core.o(.text)
    OS_InitMisc                              0x08029613   Thumb Code    44  os_core.o(.text)
    OS_SchedNew                              0x08029687   Thumb Code    26  os_core.o(.text)
    .text                                    0x08029c7c   Section        0  os_flag.o(.text)
    OS_FlagTaskRdy                           0x08029df3   Thumb Code    82  os_flag.o(.text)
    OS_FlagBlock                             0x08029fad   Thumb Code   152  os_flag.o(.text)
    .text                                    0x0802a488   Section        0  os_mbox.o(.text)
    .text                                    0x0802a854   Section        0  os_q.o(.text)
    .text                                    0x0802ae3c   Section        0  os_task.o(.text)
    .text                                    0x0802b600   Section        0  os_time.o(.text)
    .text                                    0x0802b7b0   Section      200  os_cpu_a.o(.text)
    $v0                                      0x0802b7b0   Number         0  os_cpu_a.o(.text)
    .text                                    0x0802b878   Section        0  os_cpu_c.o(.text)
    .text                                    0x0802ba3c   Section        0  button.o(.text)
    .text                                    0x0802c264   Section        0  gui.o(.text)
    .text                                    0x0802db38   Section        0  window.o(.text)
    .text                                    0x0802e2a4   Section        0  ldiv.o(.text)
    .text                                    0x0802e306   Section        0  memcpya.o(.text)
    .text                                    0x0802e32a   Section        0  memseta.o(.text)
    .text                                    0x0802e34e   Section        0  strcat.o(.text)
    .text                                    0x0802e366   Section        0  strncpy.o(.text)
    .text                                    0x0802e37e   Section        0  strlen.o(.text)
    .text                                    0x0802e38c   Section        0  strcmp.o(.text)
    .text                                    0x0802e3a8   Section        0  strcpy.o(.text)
    .text                                    0x0802e3bc   Section        0  __0sscanf.o(.text)
    .text                                    0x0802e3f4   Section        0  _scanf_int.o(.text)
    .text                                    0x0802e540   Section        0  _scanf_str.o(.text)
    .text                                    0x0802e620   Section        0  dadd.o(.text)
    .text                                    0x0802e76e   Section        0  dmul.o(.text)
    .text                                    0x0802e852   Section        0  ddiv.o(.text)
    .text                                    0x0802e930   Section        0  dflti.o(.text)
    .text                                    0x0802e952   Section        0  dfltui.o(.text)
    .text                                    0x0802e96c   Section        0  dfixui.o(.text)
    .text                                    0x0802e99e   Section        0  f2d.o(.text)
    .text                                    0x0802e9c4   Section       48  cdcmple.o(.text)
    .text                                    0x0802e9f4   Section       48  cdrcmple.o(.text)
    .text                                    0x0802ea24   Section        0  d2f.o(.text)
    .text                                    0x0802ea5c   Section       62  setjmp.o(.text)
    .text                                    0x0802ea9a   Section        0  uldiv.o(.text)
    .text                                    0x0802eafc   Section        0  llshl.o(.text)
    .text                                    0x0802eb1a   Section        0  llushr.o(.text)
    .text                                    0x0802eb3a   Section        0  llsshr.o(.text)
    .text                                    0x0802eb5e   Section        0  _chval.o(.text)
    .text                                    0x0802eb7c   Section        0  scanf_char.o(.text)
    _scanf_char_input                        0x0802eb7d   Thumb Code    12  scanf_char.o(.text)
    .text                                    0x0802eba4   Section        0  _sgetc.o(.text)
    .text                                    0x0802ebe4   Section        0  fepilogue.o(.text)
    .text                                    0x0802ebe4   Section        0  iusefp.o(.text)
    .text                                    0x0802ec52   Section        0  depilogue.o(.text)
    .text                                    0x0802ed0c   Section        0  dsqrt.o(.text)
    .text                                    0x0802edb0   Section       36  init.o(.text)
    .text                                    0x0802edd4   Section        0  isspace_c.o(.text)
    .text                                    0x0802ede0   Section        0  _scanf.o(.text)
    .text                                    0x0802f10c   Section        0  ctype_c.o(.text)
    .text                                    0x0802f134   Section        0  __dczerorl2.o(.text)
    i.__0printf$8                            0x0802f18c   Section        0  printf8.o(i.__0printf$8)
    i.__0sprintf$8                           0x0802f1ac   Section        0  printf8.o(i.__0sprintf$8)
    i.__hardfp_sqrt                          0x0802f1d4   Section        0  sqrt.o(i.__hardfp_sqrt)
    i.__scatterload_copy                     0x0802f24e   Section       14  handlers.o(i.__scatterload_copy)
    i.__scatterload_null                     0x0802f25c   Section        2  handlers.o(i.__scatterload_null)
    i.__scatterload_zeroinit                 0x0802f25e   Section       14  handlers.o(i.__scatterload_zeroinit)
    i.__set_errno                            0x0802f26c   Section        0  errno.o(i.__set_errno)
    i._printf_core                           0x0802f278   Section        0  printf8.o(i._printf_core)
    _printf_core                             0x0802f279   Thumb Code   996  printf8.o(i._printf_core)
    i._printf_post_padding                   0x0802f688   Section        0  printf8.o(i._printf_post_padding)
    _printf_post_padding                     0x0802f689   Thumb Code    36  printf8.o(i._printf_post_padding)
    i._printf_pre_padding                    0x0802f6ac   Section        0  printf8.o(i._printf_pre_padding)
    _printf_pre_padding                      0x0802f6ad   Thumb Code    46  printf8.o(i._printf_pre_padding)
    i._sputc                                 0x0802f6da   Section        0  printf8.o(i._sputc)
    _sputc                                   0x0802f6db   Thumb Code    10  printf8.o(i._sputc)
    .constdata                               0x0802f6e4   Section     6080  lcd.o(.constdata)
    .constdata                               0x08030ea4   Section      110  i2s.o(.constdata)
    .constdata                               0x08030f12   Section       10  ft5206.o(.constdata)
    .constdata                               0x08030f1c   Section      194  gt9147.o(.constdata)
    .constdata                               0x08030fde   Section       10  ott2001a.o(.constdata)
    .constdata                               0x08030fe8   Section        4  touch.o(.constdata)
    .constdata                               0x08030fec   Section       28  stm32f4xx_fsmc.o(.constdata)
    .constdata                               0x08031008   Section       36  malloc.o(.constdata)
    .constdata                               0x0803102c   Section       58  ff.o(.constdata)
    LfnOfs                                   0x0803102c   Data          13  ff.o(.constdata)
    vst                                      0x0803103a   Data          22  ff.o(.constdata)
    cst                                      0x08031050   Data          22  ff.o(.constdata)
    .constdata                               0x08031068   Section      112  exfuns.o(.constdata)
    .constdata                               0x080310d8   Section      960  mycc936.o(.constdata)
    tbl_lower                                0x080310d8   Data         480  mycc936.o(.constdata)
    tbl_upper                                0x080312b8   Data         480  mycc936.o(.constdata)
    .constdata                               0x08031498   Section       16  fontupd.o(.constdata)
    .constdata                               0x080314a8   Section       16  avi.o(.constdata)
    .constdata                               0x080314b8   Section      456  jaricom.o(.constdata)
    .constdata                               0x08031680   Section     1260  jutils.o(.constdata)
    .constdata                               0x08031b6c   Section      512  jerror.o(.constdata)
    .constdata                               0x08031d6c   Section       16  jmemmgr.o(.constdata)
    first_pool_slop                          0x08031d6c   Data           8  jmemmgr.o(.constdata)
    extra_pool_slop                          0x08031d74   Data           8  jmemmgr.o(.constdata)
    .constdata                               0x08031d7c   Section      876  jdhuff.o(.constdata)
    jpeg_zigzag_order                        0x08031d7c   Data         256  jdhuff.o(.constdata)
    jpeg_zigzag_order7                       0x08031e7c   Data         196  jdhuff.o(.constdata)
    jpeg_zigzag_order6                       0x08031f40   Data         144  jdhuff.o(.constdata)
    jpeg_zigzag_order5                       0x08031fd0   Data         100  jdhuff.o(.constdata)
    jpeg_zigzag_order4                       0x08032034   Data          64  jdhuff.o(.constdata)
    jpeg_zigzag_order3                       0x08032074   Data          36  jdhuff.o(.constdata)
    jpeg_zigzag_order2                       0x08032098   Data          16  jdhuff.o(.constdata)
    bmask                                    0x080320a8   Data          64  jdhuff.o(.constdata)
    .constdata                               0x080320e8   Section      192  jddctmgr.o(.constdata)
    aanscales                                0x080320e8   Data         128  jddctmgr.o(.constdata)
    aanscalefactor                           0x08032168   Data          64  jddctmgr.o(.constdata)
    .constdata                               0x080321a8   Section      268  jquant1.o(.constdata)
    base_dither_matrix                       0x080321a8   Data         256  jquant1.o(.constdata)
    RGB_order                                0x080322a8   Data          12  jquant1.o(.constdata)
    .constdata                               0x080322b4   Section       40  gif.o(.constdata)
    .constdata                               0x080322dc   Section     1216  tjpgd.o(.constdata)
    Zig                                      0x080322dc   Data          64  tjpgd.o(.constdata)
    Ipsf                                     0x0803231c   Data         128  tjpgd.o(.constdata)
    Clip8                                    0x0803239c   Data        1024  tjpgd.o(.constdata)
    .constdata                               0x0803279c   Section      256  os_core.o(.constdata)
    .constdata                               0x0803289c   Section    25980  gui.o(.constdata)
    .constdata                               0x08038e18   Section       64  ctype_c.o(.constdata)
    .conststring                             0x08038e58   Section      121  touch.o(.conststring)
    .conststring                             0x08038ed4   Section       40  usmart.o(.conststring)
    .conststring                             0x08038efc   Section      512  usmart_config.o(.conststring)
    .conststring                             0x080390fc   Section       64  exfuns.o(.conststring)
    .conststring                             0x0803913c   Section       95  fontupd.o(.conststring)
    .conststring                             0x0803919c   Section       29  avi.o(.conststring)
    .conststring                             0x080391bc   Section     4877  jerror.o(.conststring)
    .conststring                             0x0803a4cc   Section       89  gui.o(.conststring)
    .ARM.__AT_0x10000000                     0x10000000   Section    61440  malloc.o(.ARM.__AT_0x10000000)
    .ARM.__AT_0x1000F000                     0x1000f000   Section     3840  malloc.o(.ARM.__AT_0x1000F000)
    .data                                    0x20000000   Section       20  system_stm32f4xx.o(.data)
    .data                                    0x20000014   Section        4  main.o(.data)
    .data                                    0x20000018   Section        4  lcd.o(.data)
    .data                                    0x2000001c   Section        1  key.o(.data)
    key_up                                   0x2000001c   Data           1  key.o(.data)
    .data                                    0x2000001e   Section        2  w25qxx.o(.data)
    .data                                    0x20000020   Section       16  sdio_sdcard.o(.data)
    CardType                                 0x20000020   Data           1  sdio_sdcard.o(.data)
    RCA                                      0x20000024   Data           4  sdio_sdcard.o(.data)
    DeviceMode                               0x20000028   Data           1  sdio_sdcard.o(.data)
    StopCondition                            0x20000029   Data           1  sdio_sdcard.o(.data)
    .data                                    0x20000030   Section        8  i2s.o(.data)
    .data                                    0x20000038   Section      116  wm8978.o(.data)
    WM8978_REGVAL_TBL                        0x20000038   Data         116  wm8978.o(.data)
    .data                                    0x200000ac   Section        3  timer.o(.data)
    .data                                    0x200000af   Section        1  ft5206.o(.data)
    t                                        0x200000af   Data           1  ft5206.o(.data)
    .data                                    0x200000b0   Section        1  gt9147.o(.data)
    t                                        0x200000b0   Data           1  gt9147.o(.data)
    .data                                    0x200000b1   Section        1  ott2001a.o(.data)
    t                                        0x200000b1   Data           1  ott2001a.o(.data)
    .data                                    0x200000b4   Section       54  touch.o(.data)
    .data                                    0x200000ea   Section        4  delay.o(.data)
    fac_us                                   0x200000ea   Data           1  delay.o(.data)
    fac_ms                                   0x200000ec   Data           2  delay.o(.data)
    .data                                    0x200000f0   Section        6  usart.o(.data)
    .data                                    0x200000f6   Section       16  stm32f4xx_rcc.o(.data)
    APBAHBPrescTable                         0x200000f6   Data          16  stm32f4xx_rcc.o(.data)
    .data                                    0x20000108   Section       36  malloc.o(.data)
    .data                                    0x2000012c   Section       28  usmart.o(.data)
    .data                                    0x20000148   Section      364  usmart_config.o(.data)
    .data                                    0x200002b4   Section        2  diskio.o(.data)
    .data                                    0x200002b6   Section        2  ff.o(.data)
    Fsid                                     0x200002b6   Data           2  ff.o(.data)
    .data                                    0x200002b8   Section       20  exfuns.o(.data)
    .data                                    0x200002cc   Section        8  videoplayer.o(.data)
    oldsec                                   0x200002d0   Data           4  videoplayer.o(.data)
    .data                                    0x200002d4   Section       28  mjpeg.o(.data)
    .data                                    0x200002f0   Section        1  gif.o(.data)
    .data                                    0x200002f4   Section       12  tjpgd.o(.data)
    .data                                    0x20000300   Section       72  os_core.o(.data)
    .data                                    0x20000348   Section       30  gui.o(.data)
    .data                                    0x20000366   Section        1  window.o(.data)
    .data                                    0x20000368   Section        4  errno.o(.data)
    _errno                                   0x20000368   Data           4  errno.o(.data)
    .bss                                     0x2000036c   Section     3072  main.o(.bss)
    .bss                                     0x20000f6c   Section       14  lcd.o(.bss)
    .bss                                     0x20000f7a   Section     4096  w25qxx.o(.bss)
    .bss                                     0x20001f80   Section      704  sdio_sdcard.o(.bss)
    CSD_Tab                                  0x20001fc4   Data          16  sdio_sdcard.o(.bss)
    CID_Tab                                  0x20001fd4   Data          16  sdio_sdcard.o(.bss)
    .bss                                     0x20002240   Section      200  usart.o(.bss)
    .bss                                     0x20002320   Section    108800  malloc.o(.bss)
    .bss                                     0x2001cc20   Section       12  ff.o(.bss)
    FatFs                                    0x2001cc20   Data          12  ff.o(.bss)
    .bss                                     0x2001cc2c   Section       80  exfuns.o(.bss)
    .bss                                     0x2001cc7c   Section       33  fontupd.o(.bss)
    .bss                                     0x2001cca0   Section       16  videoplayer.o(.bss)
    .bss                                     0x2001ccb0   Section       40  avi.o(.bss)
    .bss                                     0x2001ccd8   Section       60  piclib.o(.bss)
    .bss                                     0x2001cd14   Section     2688  os_core.o(.bss)
    .bss                                     0x2001d794   Section       29  gui.o(.bss)
    STACK                                    0x2001d7b8   Section     2560  startup_stm32f40_41xxx.o(STACK)
    .ARM.__AT_0x68000000                     0x68000000   Section    983040  malloc.o(.ARM.__AT_0x68000000)
    .ARM.__AT_0x680F0000                     0x680f0000   Section    61440  malloc.o(.ARM.__AT_0x680F0000)

    Global Symbols

    Symbol Name                              Value     Ov Type        Size  Object(Section)

    BuildAttributes$$THM_ISAv4$E$P$D$K$B$S$7EM$VFPi3$EXTD16$VFPS$VFMA$PE$A:L22UL41UL21$X:L11$S22US41US21$IEEE1$IW$USESV6$~STKCKD$USESV7$~SHL$OTIME$ROPI$IEEEJ$EBA8$MICROLIB$REQ8$PRES8$EABIv2 0x00000000   Number         0  anon$$obj.o ABSOLUTE
    __ARM_use_no_argv                        0x00000000   Number         0  main.o ABSOLUTE
    __use_no_errno                           0x00000000   Number         0  useno.o ABSOLUTE
    __use_no_exception_handling              0x00000000   Number         0  useno.o ABSOLUTE
    __use_no_fp                              0x00000000   Number         0  useno.o ABSOLUTE
    __use_no_heap                            0x00000000   Number         0  useno.o ABSOLUTE
    __use_no_heap_region                     0x00000000   Number         0  useno.o ABSOLUTE
    __use_no_semihosting                     0x00000000   Number         0  useno.o ABSOLUTE
    __use_no_semihosting_swi                 0x00000000   Number         0  useno.o ABSOLUTE
    __use_no_signal_handling                 0x00000000   Number         0  useno.o ABSOLUTE
    _printf_a                                0x00000000   Number         0  stubs.o ABSOLUTE
    _printf_c                                0x00000000   Number         0  stubs.o ABSOLUTE
    _printf_charcount                        0x00000000   Number         0  stubs.o ABSOLUTE
    _printf_d                                0x00000000   Number         0  stubs.o ABSOLUTE
    _printf_e                                0x00000000   Number         0  stubs.o ABSOLUTE
    _printf_f                                0x00000000   Number         0  stubs.o ABSOLUTE
    _printf_flags                            0x00000000   Number         0  stubs.o ABSOLUTE
    _printf_fp_dec                           0x00000000   Number         0  stubs.o ABSOLUTE
    _printf_fp_hex                           0x00000000   Number         0  stubs.o ABSOLUTE
    _printf_g                                0x00000000   Number         0  stubs.o ABSOLUTE
    _printf_i                                0x00000000   Number         0  stubs.o ABSOLUTE
    _printf_int_dec                          0x00000000   Number         0  stubs.o ABSOLUTE
    _printf_l                                0x00000000   Number         0  stubs.o ABSOLUTE
    _printf_lc                               0x00000000   Number         0  stubs.o ABSOLUTE
    _printf_ll                               0x00000000   Number         0  stubs.o ABSOLUTE
    _printf_lld                              0x00000000   Number         0  stubs.o ABSOLUTE
    _printf_lli                              0x00000000   Number         0  stubs.o ABSOLUTE
    _printf_llo                              0x00000000   Number         0  stubs.o ABSOLUTE
    _printf_llu                              0x00000000   Number         0  stubs.o ABSOLUTE
    _printf_llx                              0x00000000   Number         0  stubs.o ABSOLUTE
    _printf_longlong_dec                     0x00000000   Number         0  stubs.o ABSOLUTE
    _printf_longlong_hex                     0x00000000   Number         0  stubs.o ABSOLUTE
    _printf_longlong_oct                     0x00000000   Number         0  stubs.o ABSOLUTE
    _printf_ls                               0x00000000   Number         0  stubs.o ABSOLUTE
    _printf_mbtowc                           0x00000000   Number         0  stubs.o ABSOLUTE
    _printf_n                                0x00000000   Number         0  stubs.o ABSOLUTE
    _printf_o                                0x00000000   Number         0  stubs.o ABSOLUTE
    _printf_p                                0x00000000   Number         0  stubs.o ABSOLUTE
    _printf_percent                          0x00000000   Number         0  stubs.o ABSOLUTE
    _printf_pre_padding                      0x00000000   Number         0  stubs.o ABSOLUTE
    _printf_return_value                     0x00000000   Number         0  stubs.o ABSOLUTE
    _printf_s                                0x00000000   Number         0  stubs.o ABSOLUTE
    _printf_sizespec                         0x00000000   Number         0  stubs.o ABSOLUTE
    _printf_str                              0x00000000   Number         0  stubs.o ABSOLUTE
    _printf_truncate_signed                  0x00000000   Number         0  stubs.o ABSOLUTE
    _printf_truncate_unsigned                0x00000000   Number         0  stubs.o ABSOLUTE
    _printf_u                                0x00000000   Number         0  stubs.o ABSOLUTE
    _printf_wc                               0x00000000   Number         0  stubs.o ABSOLUTE
    _printf_wctomb                           0x00000000   Number         0  stubs.o ABSOLUTE
    _printf_widthprec                        0x00000000   Number         0  stubs.o ABSOLUTE
    _printf_x                                0x00000000   Number         0  stubs.o ABSOLUTE
    __alloca_longjmp                          - Undefined Weak Reference
    __alloca_setjmp                           - Undefined Weak Reference
    __cpp_initialize__aeabi_                  - Undefined Weak Reference
    __cxa_finalize                            - Undefined Weak Reference
    _clock_init                               - Undefined Weak Reference
    _microlib_exit                            - Undefined Weak Reference
    _scanf_longlong                           - Undefined Weak Reference
    _scanf_real                               - Undefined Weak Reference
    __Vectors_Size                           0x00000188   Number         0  startup_stm32f40_41xxx.o ABSOLUTE
    __Vectors                                0x08000000   Data           4  startup_stm32f40_41xxx.o(RESET)
    __Vectors_End                            0x08000188   Data           0  startup_stm32f40_41xxx.o(RESET)
    __main                                   0x08000189   Thumb Code     0  entry.o(.ARM.Collect$$$$00000000)
    _main_stk                                0x08000189   Thumb Code     0  entry2.o(.ARM.Collect$$$$00000001)
    _main_scatterload                        0x0800018d   Thumb Code     0  entry5.o(.ARM.Collect$$$$00000004)
    __main_after_scatterload                 0x08000191   Thumb Code     0  entry5.o(.ARM.Collect$$$$00000004)
    _main_clock                              0x08000191   Thumb Code     0  entry7b.o(.ARM.Collect$$$$00000008)
    _main_cpp_init                           0x08000191   Thumb Code     0  entry8b.o(.ARM.Collect$$$$0000000A)
    _main_init                               0x08000191   Thumb Code     0  entry9a.o(.ARM.Collect$$$$0000000B)
    __rt_final_cpp                           0x08000199   Thumb Code     0  entry10a.o(.ARM.Collect$$$$0000000D)
    __rt_final_exit                          0x08000199   Thumb Code     0  entry11a.o(.ARM.Collect$$$$0000000F)
    WFI_SET                                  0x0800019d   Thumb Code     2  sys.o(.emb_text)
    INTX_DISABLE                             0x0800019f   Thumb Code     4  sys.o(.emb_text)
    INTX_ENABLE                              0x080001a3   Thumb Code     4  sys.o(.emb_text)
    MSR_MSP                                  0x080001a7   Thumb Code     6  sys.o(.emb_text)
    NMI_Handler                              0x080001ad   Thumb Code     2  stm32f4xx_it.o(.text)
    HardFault_Handler                        0x080001af   Thumb Code     4  stm32f4xx_it.o(.text)
    MemManage_Handler                        0x080001b3   Thumb Code     4  stm32f4xx_it.o(.text)
    BusFault_Handler                         0x080001b7   Thumb Code     4  stm32f4xx_it.o(.text)
    UsageFault_Handler                       0x080001bb   Thumb Code     4  stm32f4xx_it.o(.text)
    SVC_Handler                              0x080001bf   Thumb Code     2  stm32f4xx_it.o(.text)
    DebugMon_Handler                         0x080001c1   Thumb Code     2  stm32f4xx_it.o(.text)
    SystemInit                               0x080002a1   Thumb Code    88  system_stm32f4xx.o(.text)
    SystemCoreClockUpdate                    0x080002f9   Thumb Code   174  system_stm32f4xx.o(.text)
    main_task                                0x080003d5   Thumb Code    72  main.o(.text)
    start_task                               0x0800041d   Thumb Code    56  main.o(.text)
    main                                     0x08000455   Thumb Code   284  main.o(.text)
    vedio_task                               0x08000571   Thumb Code    26  main.o(.text)
    file_task                                0x0800058b   Thumb Code    26  main.o(.text)
    LCD_WriteRAM_Prepare                     0x080005e1   Thumb Code    10  lcd.o(.text)
    LCD_WriteReg                             0x080005eb   Thumb Code    14  lcd.o(.text)
    LCD_WR_DATA                              0x080005f9   Thumb Code    20  lcd.o(.text)
    LCD_WR_REG                               0x0800060d   Thumb Code    18  lcd.o(.text)
    LCD_SetCursor                            0x0800061f   Thumb Code   418  lcd.o(.text)
    LCD_Clear                                0x080007c1   Thumb Code   102  lcd.o(.text)
    LCD_Fill                                 0x08000827   Thumb Code   180  lcd.o(.text)
    LCD_ShowPlayerPic                        0x080008db   Thumb Code   628  lcd.o(.text)
    LCD_ShowHomePic                          0x08000b4f   Thumb Code   516  lcd.o(.text)
    pic_get_tnum                             0x08000d53   Thumb Code   108  lcd.o(.text)
    LCD_RD_DATA                              0x08000dbf   Thumb Code    14  lcd.o(.text)
    LCD_ReadReg                              0x08000dcd   Thumb Code    22  lcd.o(.text)
    LCD_WriteRAM                             0x08000de3   Thumb Code     6  lcd.o(.text)
    LCD_BGR2RGB                              0x08000de9   Thumb Code    26  lcd.o(.text)
    opt_delay                                0x08000e03   Thumb Code    14  lcd.o(.text)
    LCD_ReadPoint                            0x08000e11   Thumb Code   426  lcd.o(.text)
    LCD_DisplayOn                            0x08000fbb   Thumb Code    92  lcd.o(.text)
    LCD_DisplayOff                           0x08001017   Thumb Code    90  lcd.o(.text)
    LCD_Scan_Dir                             0x08001071   Thumb Code   750  lcd.o(.text)
    LCD_DrawPoint                            0x0800135f   Thumb Code    28  lcd.o(.text)
    LCD_Fast_DrawPoint                       0x0800137b   Thumb Code   376  lcd.o(.text)
    LCD_SSD_BackLightSet                     0x080014f3   Thumb Code    88  lcd.o(.text)
    LCD_Display_Dir                          0x0800154b   Thumb Code   466  lcd.o(.text)
    LCD_Set_Window                           0x0800171d   Thumb Code   528  lcd.o(.text)
    LCD_Init                                 0x0800192d   Thumb Code 14696  lcd.o(.text)
    LCD_Color_Fill                           0x08005295   Thumb Code    92  lcd.o(.text)
    LCD_DrawLine                             0x080052f1   Thumb Code   190  lcd.o(.text)
    LCD_DrawRectangle                        0x080053af   Thumb Code    60  lcd.o(.text)
    LCD_Draw_Circle                          0x080053eb   Thumb Code   152  lcd.o(.text)
    LCD_ShowChar                             0x08005483   Thumb Code   272  lcd.o(.text)
    LCD_Pow                                  0x08005593   Thumb Code    22  lcd.o(.text)
    LCD_ShowNum                              0x080055a9   Thumb Code   148  lcd.o(.text)
    LCD_ShowxNum                             0x0800563d   Thumb Code   190  lcd.o(.text)
    LCD_ShowString                           0x080056fb   Thumb Code   102  lcd.o(.text)
    KEY_Init                                 0x08005779   Thumb Code    60  key.o(.text)
    KEY_Scan                                 0x080057b5   Thumb Code   188  key.o(.text)
    SPI1_ReadWriteByte                       0x0800587d   Thumb Code    50  spi.o(.text)
    SPI1_Init                                0x080058af   Thumb Code   186  spi.o(.text)
    SPI1_SetSpeed                            0x08005969   Thumb Code    36  spi.o(.text)
    W25QXX_ReadID                            0x08005995   Thumb Code    64  w25qxx.o(.text)
    W25QXX_Init                              0x080059d5   Thumb Code   100  w25qxx.o(.text)
    W25QXX_ReadSR                            0x08005a39   Thumb Code    36  w25qxx.o(.text)
    W25QXX_Write_SR                          0x08005a5d   Thumb Code    32  w25qxx.o(.text)
    W25QXX_Write_Enable                      0x08005a7d   Thumb Code    24  w25qxx.o(.text)
    W25QXX_Write_Disable                     0x08005a95   Thumb Code    24  w25qxx.o(.text)
    W25QXX_Read                              0x08005aad   Thumb Code    74  w25qxx.o(.text)
    W25QXX_Wait_Busy                         0x08005af7   Thumb Code    18  w25qxx.o(.text)
    W25QXX_Write_Page                        0x08005b09   Thumb Code    80  w25qxx.o(.text)
    W25QXX_Write_NoCheck                     0x08005b59   Thumb Code    70  w25qxx.o(.text)
    W25QXX_Erase_Sector                      0x08005b9f   Thumb Code    70  w25qxx.o(.text)
    W25QXX_Write                             0x08005be5   Thumb Code   180  w25qxx.o(.text)
    W25QXX_Erase_Chip                        0x08005c99   Thumb Code    36  w25qxx.o(.text)
    W25QXX_PowerDown                         0x08005cbd   Thumb Code    30  w25qxx.o(.text)
    W25QXX_WAKEUP                            0x08005cdb   Thumb Code    30  w25qxx.o(.text)
    SDIO_Register_Deinit                     0x08005d19   Thumb Code    48  sdio_sdcard.o(.text)
    SD_SetDeviceMode                         0x08005d49   Thumb Code    20  sdio_sdcard.o(.text)
    SDIO_Clock_Set                           0x08005d5d   Thumb Code    18  sdio_sdcard.o(.text)
    CmdResp1Error                            0x08005d6f   Thumb Code    96  sdio_sdcard.o(.text)
    FindSCR                                  0x08005dcf   Thumb Code   390  sdio_sdcard.o(.text)
    SDEnWideBus                              0x08005f55   Thumb Code   160  sdio_sdcard.o(.text)
    SD_EnableWideBusOperation                0x08005ff5   Thumb Code    98  sdio_sdcard.o(.text)
    SD_SelectDeselect                        0x08006057   Thumb Code    42  sdio_sdcard.o(.text)
    SD_GetCardInfo                           0x08006081   Thumb Code   806  sdio_sdcard.o(.text)
    CmdResp2Error                            0x080063a7   Thumb Code    80  sdio_sdcard.o(.text)
    CmdResp6Error                            0x080063f7   Thumb Code   144  sdio_sdcard.o(.text)
    SD_InitializeCards                       0x08006487   Thumb Code   354  sdio_sdcard.o(.text)
    CmdResp3Error                            0x080065e9   Thumb Code    52  sdio_sdcard.o(.text)
    CmdResp7Error                            0x0800661d   Thumb Code    72  sdio_sdcard.o(.text)
    CmdError                                 0x08006665   Thumb Code    48  sdio_sdcard.o(.text)
    SD_PowerON                               0x08006695   Thumb Code   460  sdio_sdcard.o(.text)
    SD_Init                                  0x08006861   Thumb Code   334  sdio_sdcard.o(.text)
    SD_PowerOFF                              0x080069af   Thumb Code    12  sdio_sdcard.o(.text)
    SD_DMA_Config                            0x080069bb   Thumb Code   118  sdio_sdcard.o(.text)
    convert_from_bytes_to_power_of_two       0x08006a31   Thumb Code    18  sdio_sdcard.o(.text)
    SD_ReadBlock                             0x08006a43   Thumb Code   578  sdio_sdcard.o(.text)
    SD_ReadMultiBlocks                       0x08006c85   Thumb Code   762  sdio_sdcard.o(.text)
    IsCardProgramming                        0x08006f7f   Thumb Code   150  sdio_sdcard.o(.text)
    SD_WriteBlock                            0x08007015   Thumb Code   914  sdio_sdcard.o(.text)
    SD_WriteMultiBlocks                      0x080073a7   Thumb Code   976  sdio_sdcard.o(.text)
    SD_ProcessIRQSrc                         0x08007777   Thumb Code   322  sdio_sdcard.o(.text)
    SDIO_IRQHandler                          0x080078b9   Thumb Code     8  sdio_sdcard.o(.text)
    SD_SendStatus                            0x080078c1   Thumb Code    74  sdio_sdcard.o(.text)
    SD_GetState                              0x0800790b   Thumb Code    26  sdio_sdcard.o(.text)
    SD_ReadDisk                              0x08007925   Thumb Code   188  sdio_sdcard.o(.text)
    SD_WriteDisk                             0x080079e1   Thumb Code   148  sdio_sdcard.o(.text)
    IIC_Init                                 0x08007a79   Thumb Code    62  myiic.o(.text)
    IIC_Start                                0x08007ab7   Thumb Code    68  myiic.o(.text)
    IIC_Stop                                 0x08007afb   Thumb Code    62  myiic.o(.text)
    IIC_Wait_Ack                             0x08007b39   Thumb Code    82  myiic.o(.text)
    IIC_Ack                                  0x08007b8b   Thumb Code    66  myiic.o(.text)
    IIC_NAck                                 0x08007bcd   Thumb Code    66  myiic.o(.text)
    IIC_Send_Byte                            0x08007c0f   Thumb Code    90  myiic.o(.text)
    IIC_Read_Byte                            0x08007c69   Thumb Code    94  myiic.o(.text)
    AT24CXX_Init                             0x08007cd5   Thumb Code     8  24cxx.o(.text)
    AT24CXX_ReadOneByte                      0x08007cdd   Thumb Code    88  24cxx.o(.text)
    AT24CXX_WriteOneByte                     0x08007d35   Thumb Code    80  24cxx.o(.text)
    AT24CXX_WriteLenByte                     0x08007d85   Thumb Code    42  24cxx.o(.text)
    AT24CXX_ReadLenByte                      0x08007daf   Thumb Code    44  24cxx.o(.text)
    AT24CXX_Check                            0x08007ddb   Thumb Code    46  24cxx.o(.text)
    AT24CXX_Read                             0x08007e09   Thumb Code    34  24cxx.o(.text)
    AT24CXX_Write                            0x08007e2b   Thumb Code    36  24cxx.o(.text)
    I2S2_Init                                0x08007e51   Thumb Code    94  i2s.o(.text)
    I2S2ext_Init                             0x08007eaf   Thumb Code    72  i2s.o(.text)
    I2S2_SampleRate_Set                      0x08007ef7   Thumb Code   150  i2s.o(.text)
    I2S2_TX_DMA_Init                         0x08007f8d   Thumb Code   166  i2s.o(.text)
    I2S2ext_RX_DMA_Init                      0x08008033   Thumb Code   180  i2s.o(.text)
    DMA1_Stream4_IRQHandler                  0x080080e7   Thumb Code    30  i2s.o(.text)
    DMA1_Stream3_IRQHandler                  0x08008105   Thumb Code    34  i2s.o(.text)
    I2S_Play_Start                           0x08008127   Thumb Code    12  i2s.o(.text)
    I2S_Play_Stop                            0x08008133   Thumb Code    12  i2s.o(.text)
    I2S_Rec_Start                            0x0800813f   Thumb Code    14  i2s.o(.text)
    I2S_Rec_Stop                             0x0800814d   Thumb Code    14  i2s.o(.text)
    WM8978_Write_Reg                         0x08008189   Thumb Code    80  wm8978.o(.text)
    WM8978_Init                              0x080081d9   Thumb Code   244  wm8978.o(.text)
    WM8978_Read_Reg                          0x080082cd   Thumb Code    10  wm8978.o(.text)
    WM8978_ADDA_Cfg                          0x080082d7   Thumb Code    64  wm8978.o(.text)
    WM8978_AUX_Gain                          0x08008317   Thumb Code    54  wm8978.o(.text)
    WM8978_LINEIN_Gain                       0x0800834d   Thumb Code    54  wm8978.o(.text)
    WM8978_Input_Cfg                         0x08008383   Thumb Code   102  wm8978.o(.text)
    WM8978_Output_Cfg                        0x080083e9   Thumb Code    42  wm8978.o(.text)
    WM8978_MIC_Gain                          0x08008413   Thumb Code    28  wm8978.o(.text)
    WM8978_I2S_Cfg                           0x0800842f   Thumb Code    28  wm8978.o(.text)
    WM8978_HPvol_Set                         0x0800844b   Thumb Code    46  wm8978.o(.text)
    WM8978_SPKvol_Set                        0x08008479   Thumb Code    34  wm8978.o(.text)
    WM8978_3D_Set                            0x0800849b   Thumb Code    18  wm8978.o(.text)
    WM8978_EQ_3D_Dir                         0x080084ad   Thumb Code    34  wm8978.o(.text)
    WM8978_EQ1_Set                           0x080084cf   Thumb Code    50  wm8978.o(.text)
    WM8978_EQ2_Set                           0x08008501   Thumb Code    40  wm8978.o(.text)
    WM8978_EQ3_Set                           0x08008529   Thumb Code    40  wm8978.o(.text)
    WM8978_EQ4_Set                           0x08008551   Thumb Code    40  wm8978.o(.text)
    WM8978_EQ5_Set                           0x08008579   Thumb Code    40  wm8978.o(.text)
    TIM3_Int_Init                            0x080085ad   Thumb Code    88  timer.o(.text)
    TIM3_IRQHandler                          0x08008605   Thumb Code    40  timer.o(.text)
    TIM6_DAC_IRQHandler                      0x0800862d   Thumb Code    28  timer.o(.text)
    TIM6_Int_Init                            0x08008649   Thumb Code    88  timer.o(.text)
    CT_Delay                                 0x080086bd   Thumb Code    10  ctiic.o(.text)
    CT_IIC_Init                              0x080086c7   Thumb Code    60  ctiic.o(.text)
    CT_IIC_Start                             0x08008703   Thumb Code    62  ctiic.o(.text)
    CT_IIC_Stop                              0x08008741   Thumb Code    56  ctiic.o(.text)
    CT_IIC_Wait_Ack                          0x08008779   Thumb Code    78  ctiic.o(.text)
    CT_IIC_Ack                               0x080087c7   Thumb Code    66  ctiic.o(.text)
    CT_IIC_NAck                              0x08008809   Thumb Code    66  ctiic.o(.text)
    CT_IIC_Send_Byte                         0x0800884b   Thumb Code    82  ctiic.o(.text)
    CT_IIC_Read_Byte                         0x0800889d   Thumb Code    92  ctiic.o(.text)
    FT5206_WR_Reg                            0x08008911   Thumb Code    82  ft5206.o(.text)
    FT5206_RD_Reg                            0x08008963   Thumb Code    88  ft5206.o(.text)
    FT5206_Init                              0x080089bb   Thumb Code   202  ft5206.o(.text)
    FT5206_Scan                              0x08008a85   Thumb Code   400  ft5206.o(.text)
    GT9147_WR_Reg                            0x08008c3d   Thumb Code    92  gt9147.o(.text)
    GT9147_Send_Cfg                          0x08008c99   Thumb Code    86  gt9147.o(.text)
    GT9147_RD_Reg                            0x08008cef   Thumb Code    98  gt9147.o(.text)
    GT9147_Init                              0x08008d51   Thumb Code   248  gt9147.o(.text)
    GT9147_Scan                              0x08008e49   Thumb Code   494  gt9147.o(.text)
    OTT2001A_WR_Reg                          0x08009085   Thumb Code    92  ott2001a.o(.text)
    OTT2001A_RD_Reg                          0x080090e1   Thumb Code    98  ott2001a.o(.text)
    OTT2001A_SensorControl                   0x08009143   Thumb Code    28  ott2001a.o(.text)
    OTT2001A_Init                            0x0800915f   Thumb Code   142  ott2001a.o(.text)
    OTT2001A_Scan                            0x080091ed   Thumb Code   478  ott2001a.o(.text)
    touchScan                                0x0800940d   Thumb Code    78  touch.o(.text)
    TP_Write_Byte                            0x0800945b   Thumb Code    64  touch.o(.text)
    TP_Read_AD                               0x0800949b   Thumb Code   132  touch.o(.text)
    TP_Read_XOY                              0x0800951f   Thumb Code   120  touch.o(.text)
    TP_Read_XY                               0x08009597   Thumb Code    38  touch.o(.text)
    TP_Read_XY2                              0x080095bd   Thumb Code   192  touch.o(.text)
    TP_Drow_Touch_Point                      0x0800967d   Thumb Code   108  touch.o(.text)
    TP_Draw_Big_Point                        0x080096e9   Thumb Code    54  touch.o(.text)
    TP_Scan                                  0x0800971f   Thumb Code   266  touch.o(.text)
    TP_Save_Adjdata                          0x08009829   Thumb Code   118  touch.o(.text)
    TP_Get_Adjdata                           0x0800989f   Thumb Code    74  touch.o(.text)
    TP_Adj_Info_Show                         0x080098e9   Thumb Code   374  touch.o(.text)
    TP_Adjust                                0x08009a5f   Thumb Code  2304  touch.o(.text)
    TP_Init                                  0x0800a35f   Thumb Code   260  touch.o(.text)
    FSMC_SRAM_Init                           0x0800a4bd   Thumb Code   694  sram.o(.text)
    FSMC_SRAM_WriteBuffer                    0x0800a773   Thumb Code    24  sram.o(.text)
    FSMC_SRAM_ReadBuffer                     0x0800a78b   Thumb Code    22  sram.o(.text)
    fsmc_sram_test_write                     0x0800a7a1   Thumb Code    16  sram.o(.text)
    fsmc_sram_test_read                      0x0800a7b1   Thumb Code    20  sram.o(.text)
    delay_osschedlock                        0x0800a7d9   Thumb Code     8  delay.o(.text)
    delay_osschedunlock                      0x0800a7e1   Thumb Code     8  delay.o(.text)
    delay_ostimedly                          0x0800a7e9   Thumb Code    12  delay.o(.text)
    SysTick_Handler                          0x0800a7f5   Thumb Code    24  delay.o(.text)
    delay_init                               0x0800a80d   Thumb Code    76  delay.o(.text)
    delay_us                                 0x0800a859   Thumb Code    84  delay.o(.text)
    delay_ms                                 0x0800a8ad   Thumb Code    66  delay.o(.text)
    _sys_exit                                0x0800a901   Thumb Code     4  usart.o(.text)
    fputc                                    0x0800a905   Thumb Code    22  usart.o(.text)
    uart_init                                0x0800a91b   Thumb Code   164  usart.o(.text)
    USART1_IRQHandler                        0x0800a9bf   Thumb Code   130  usart.o(.text)
    Reset_Handler                            0x0800aa51   Thumb Code     8  startup_stm32f40_41xxx.o(.text)
    ADC_IRQHandler                           0x0800aa6b   Thumb Code     0  startup_stm32f40_41xxx.o(.text)
    CAN1_RX0_IRQHandler                      0x0800aa6b   Thumb Code     0  startup_stm32f40_41xxx.o(.text)
    CAN1_RX1_IRQHandler                      0x0800aa6b   Thumb Code     0  startup_stm32f40_41xxx.o(.text)
    CAN1_SCE_IRQHandler                      0x0800aa6b   Thumb Code     0  startup_stm32f40_41xxx.o(.text)
    CAN1_TX_IRQHandler                       0x0800aa6b   Thumb Code     0  startup_stm32f40_41xxx.o(.text)
    CAN2_RX0_IRQHandler                      0x0800aa6b   Thumb Code     0  startup_stm32f40_41xxx.o(.text)
    CAN2_RX1_IRQHandler                      0x0800aa6b   Thumb Code     0  startup_stm32f40_41xxx.o(.text)
    CAN2_SCE_IRQHandler                      0x0800aa6b   Thumb Code     0  startup_stm32f40_41xxx.o(.text)
    CAN2_TX_IRQHandler                       0x0800aa6b   Thumb Code     0  startup_stm32f40_41xxx.o(.text)
    CRYP_IRQHandler                          0x0800aa6b   Thumb Code     0  startup_stm32f40_41xxx.o(.text)
    DCMI_IRQHandler                          0x0800aa6b   Thumb Code     0  startup_stm32f40_41xxx.o(.text)
    DMA1_Stream0_IRQHandler                  0x0800aa6b   Thumb Code     0  startup_stm32f40_41xxx.o(.text)
    DMA1_Stream1_IRQHandler                  0x0800aa6b   Thumb Code     0  startup_stm32f40_41xxx.o(.text)
    DMA1_Stream2_IRQHandler                  0x0800aa6b   Thumb Code     0  startup_stm32f40_41xxx.o(.text)
    DMA1_Stream5_IRQHandler                  0x0800aa6b   Thumb Code     0  startup_stm32f40_41xxx.o(.text)
    DMA1_Stream6_IRQHandler                  0x0800aa6b   Thumb Code     0  startup_stm32f40_41xxx.o(.text)
    DMA1_Stream7_IRQHandler                  0x0800aa6b   Thumb Code     0  startup_stm32f40_41xxx.o(.text)
    DMA2_Stream0_IRQHandler                  0x0800aa6b   Thumb Code     0  startup_stm32f40_41xxx.o(.text)
    DMA2_Stream1_IRQHandler                  0x0800aa6b   Thumb Code     0  startup_stm32f40_41xxx.o(.text)
    DMA2_Stream2_IRQHandler                  0x0800aa6b   Thumb Code     0  startup_stm32f40_41xxx.o(.text)
    DMA2_Stream3_IRQHandler                  0x0800aa6b   Thumb Code     0  startup_stm32f40_41xxx.o(.text)
    DMA2_Stream4_IRQHandler                  0x0800aa6b   Thumb Code     0  startup_stm32f40_41xxx.o(.text)
    DMA2_Stream5_IRQHandler                  0x0800aa6b   Thumb Code     0  startup_stm32f40_41xxx.o(.text)
    DMA2_Stream6_IRQHandler                  0x0800aa6b   Thumb Code     0  startup_stm32f40_41xxx.o(.text)
    DMA2_Stream7_IRQHandler                  0x0800aa6b   Thumb Code     0  startup_stm32f40_41xxx.o(.text)
    ETH_IRQHandler                           0x0800aa6b   Thumb Code     0  startup_stm32f40_41xxx.o(.text)
    ETH_WKUP_IRQHandler                      0x0800aa6b   Thumb Code     0  startup_stm32f40_41xxx.o(.text)
    EXTI0_IRQHandler                         0x0800aa6b   Thumb Code     0  startup_stm32f40_41xxx.o(.text)
    EXTI15_10_IRQHandler                     0x0800aa6b   Thumb Code     0  startup_stm32f40_41xxx.o(.text)
    EXTI1_IRQHandler                         0x0800aa6b   Thumb Code     0  startup_stm32f40_41xxx.o(.text)
    EXTI2_IRQHandler                         0x0800aa6b   Thumb Code     0  startup_stm32f40_41xxx.o(.text)
    EXTI3_IRQHandler                         0x0800aa6b   Thumb Code     0  startup_stm32f40_41xxx.o(.text)
    EXTI4_IRQHandler                         0x0800aa6b   Thumb Code     0  startup_stm32f40_41xxx.o(.text)
    EXTI9_5_IRQHandler                       0x0800aa6b   Thumb Code     0  startup_stm32f40_41xxx.o(.text)
    FLASH_IRQHandler                         0x0800aa6b   Thumb Code     0  startup_stm32f40_41xxx.o(.text)
    FPU_IRQHandler                           0x0800aa6b   Thumb Code     0  startup_stm32f40_41xxx.o(.text)
    FSMC_IRQHandler                          0x0800aa6b   Thumb Code     0  startup_stm32f40_41xxx.o(.text)
    HASH_RNG_IRQHandler                      0x0800aa6b   Thumb Code     0  startup_stm32f40_41xxx.o(.text)
    I2C1_ER_IRQHandler                       0x0800aa6b   Thumb Code     0  startup_stm32f40_41xxx.o(.text)
    I2C1_EV_IRQHandler                       0x0800aa6b   Thumb Code     0  startup_stm32f40_41xxx.o(.text)
    I2C2_ER_IRQHandler                       0x0800aa6b   Thumb Code     0  startup_stm32f40_41xxx.o(.text)
    I2C2_EV_IRQHandler                       0x0800aa6b   Thumb Code     0  startup_stm32f40_41xxx.o(.text)
    I2C3_ER_IRQHandler                       0x0800aa6b   Thumb Code     0  startup_stm32f40_41xxx.o(.text)
    I2C3_EV_IRQHandler                       0x0800aa6b   Thumb Code     0  startup_stm32f40_41xxx.o(.text)
    OTG_FS_IRQHandler                        0x0800aa6b   Thumb Code     0  startup_stm32f40_41xxx.o(.text)
    OTG_FS_WKUP_IRQHandler                   0x0800aa6b   Thumb Code     0  startup_stm32f40_41xxx.o(.text)
    OTG_HS_EP1_IN_IRQHandler                 0x0800aa6b   Thumb Code     0  startup_stm32f40_41xxx.o(.text)
    OTG_HS_EP1_OUT_IRQHandler                0x0800aa6b   Thumb Code     0  startup_stm32f40_41xxx.o(.text)
    OTG_HS_IRQHandler                        0x0800aa6b   Thumb Code     0  startup_stm32f40_41xxx.o(.text)
    OTG_HS_WKUP_IRQHandler                   0x0800aa6b   Thumb Code     0  startup_stm32f40_41xxx.o(.text)
    PVD_IRQHandler                           0x0800aa6b   Thumb Code     0  startup_stm32f40_41xxx.o(.text)
    RCC_IRQHandler                           0x0800aa6b   Thumb Code     0  startup_stm32f40_41xxx.o(.text)
    RTC_Alarm_IRQHandler                     0x0800aa6b   Thumb Code     0  startup_stm32f40_41xxx.o(.text)
    RTC_WKUP_IRQHandler                      0x0800aa6b   Thumb Code     0  startup_stm32f40_41xxx.o(.text)
    SPI1_IRQHandler                          0x0800aa6b   Thumb Code     0  startup_stm32f40_41xxx.o(.text)
    SPI2_IRQHandler                          0x0800aa6b   Thumb Code     0  startup_stm32f40_41xxx.o(.text)
    SPI3_IRQHandler                          0x0800aa6b   Thumb Code     0  startup_stm32f40_41xxx.o(.text)
    TAMP_STAMP_IRQHandler                    0x0800aa6b   Thumb Code     0  startup_stm32f40_41xxx.o(.text)
    TIM1_BRK_TIM9_IRQHandler                 0x0800aa6b   Thumb Code     0  startup_stm32f40_41xxx.o(.text)
    TIM1_CC_IRQHandler                       0x0800aa6b   Thumb Code     0  startup_stm32f40_41xxx.o(.text)
    TIM1_TRG_COM_TIM11_IRQHandler            0x0800aa6b   Thumb Code     0  startup_stm32f40_41xxx.o(.text)
    TIM1_UP_TIM10_IRQHandler                 0x0800aa6b   Thumb Code     0  startup_stm32f40_41xxx.o(.text)
    TIM2_IRQHandler                          0x0800aa6b   Thumb Code     0  startup_stm32f40_41xxx.o(.text)
    TIM5_IRQHandler                          0x0800aa6b   Thumb Code     0  startup_stm32f40_41xxx.o(.text)
    TIM7_IRQHandler                          0x0800aa6b   Thumb Code     0  startup_stm32f40_41xxx.o(.text)
    TIM8_BRK_TIM12_IRQHandler                0x0800aa6b   Thumb Code     0  startup_stm32f40_41xxx.o(.text)
    TIM8_CC_IRQHandler                       0x0800aa6b   Thumb Code     0  startup_stm32f40_41xxx.o(.text)
    TIM8_TRG_COM_TIM14_IRQHandler            0x0800aa6b   Thumb Code     0  startup_stm32f40_41xxx.o(.text)
    TIM8_UP_TIM13_IRQHandler                 0x0800aa6b   Thumb Code     0  startup_stm32f40_41xxx.o(.text)
    UART4_IRQHandler                         0x0800aa6b   Thumb Code     0  startup_stm32f40_41xxx.o(.text)
    UART5_IRQHandler                         0x0800aa6b   Thumb Code     0  startup_stm32f40_41xxx.o(.text)
    USART2_IRQHandler                        0x0800aa6b   Thumb Code     0  startup_stm32f40_41xxx.o(.text)
    USART3_IRQHandler                        0x0800aa6b   Thumb Code     0  startup_stm32f40_41xxx.o(.text)
    USART6_IRQHandler                        0x0800aa6b   Thumb Code     0  startup_stm32f40_41xxx.o(.text)
    WWDG_IRQHandler                          0x0800aa6b   Thumb Code     0  startup_stm32f40_41xxx.o(.text)
    NVIC_PriorityGroupConfig                 0x0800aa75   Thumb Code    10  misc.o(.text)
    NVIC_Init                                0x0800aa7f   Thumb Code   106  misc.o(.text)
    NVIC_SetVectorTable                      0x0800aae9   Thumb Code    14  misc.o(.text)
    NVIC_SystemLPConfig                      0x0800aaf7   Thumb Code    34  misc.o(.text)
    SysTick_CLKSourceConfig                  0x0800ab19   Thumb Code    40  misc.o(.text)
    GPIO_DeInit                              0x0800ab55   Thumb Code   268  stm32f4xx_gpio.o(.text)
    GPIO_Init                                0x0800ac61   Thumb Code   144  stm32f4xx_gpio.o(.text)
    GPIO_StructInit                          0x0800acf1   Thumb Code    18  stm32f4xx_gpio.o(.text)
    GPIO_PinLockConfig                       0x0800ad03   Thumb Code    34  stm32f4xx_gpio.o(.text)
    GPIO_ReadInputDataBit                    0x0800ad25   Thumb Code    18  stm32f4xx_gpio.o(.text)
    GPIO_ReadInputData                       0x0800ad37   Thumb Code     8  stm32f4xx_gpio.o(.text)
    GPIO_ReadOutputDataBit                   0x0800ad3f   Thumb Code    18  stm32f4xx_gpio.o(.text)
    GPIO_ReadOutputData                      0x0800ad51   Thumb Code     8  stm32f4xx_gpio.o(.text)
    GPIO_SetBits                             0x0800ad59   Thumb Code     4  stm32f4xx_gpio.o(.text)
    GPIO_ResetBits                           0x0800ad5d   Thumb Code     4  stm32f4xx_gpio.o(.text)
    GPIO_WriteBit                            0x0800ad61   Thumb Code    10  stm32f4xx_gpio.o(.text)
    GPIO_Write                               0x0800ad6b   Thumb Code     4  stm32f4xx_gpio.o(.text)
    GPIO_ToggleBits                          0x0800ad6f   Thumb Code     8  stm32f4xx_gpio.o(.text)
    GPIO_PinAFConfig                         0x0800ad77   Thumb Code    70  stm32f4xx_gpio.o(.text)
    FSMC_NORSRAMDeInit                       0x0800ade9   Thumb Code    54  stm32f4xx_fsmc.o(.text)
    FSMC_NORSRAMInit                         0x0800ae1f   Thumb Code   230  stm32f4xx_fsmc.o(.text)
    FSMC_NORSRAMStructInit                   0x0800af05   Thumb Code    48  stm32f4xx_fsmc.o(.text)
    FSMC_NORSRAMCmd                          0x0800af35   Thumb Code    46  stm32f4xx_fsmc.o(.text)
    FSMC_NANDDeInit                          0x0800af63   Thumb Code    62  stm32f4xx_fsmc.o(.text)
    FSMC_NANDInit                            0x0800afa1   Thumb Code   132  stm32f4xx_fsmc.o(.text)
    FSMC_NANDStructInit                      0x0800b025   Thumb Code    54  stm32f4xx_fsmc.o(.text)
    FSMC_NANDCmd                             0x0800b05b   Thumb Code    86  stm32f4xx_fsmc.o(.text)
    FSMC_NANDECCCmd                          0x0800b0b1   Thumb Code    86  stm32f4xx_fsmc.o(.text)
    FSMC_GetECC                              0x0800b107   Thumb Code    24  stm32f4xx_fsmc.o(.text)
    FSMC_PCCARDDeInit                        0x0800b11f   Thumb Code    36  stm32f4xx_fsmc.o(.text)
    FSMC_PCCARDInit                          0x0800b143   Thumb Code   130  stm32f4xx_fsmc.o(.text)
    FSMC_PCCARDStructInit                    0x0800b1c5   Thumb Code    60  stm32f4xx_fsmc.o(.text)
    FSMC_PCCARDCmd                           0x0800b201   Thumb Code    44  stm32f4xx_fsmc.o(.text)
    FSMC_ITConfig                            0x0800b22d   Thumb Code   128  stm32f4xx_fsmc.o(.text)
    FSMC_GetFlagStatus                       0x0800b2ad   Thumb Code    54  stm32f4xx_fsmc.o(.text)
    FSMC_ClearFlag                           0x0800b2e3   Thumb Code    74  stm32f4xx_fsmc.o(.text)
    FSMC_GetITStatus                         0x0800b32d   Thumb Code    62  stm32f4xx_fsmc.o(.text)
    FSMC_ClearITPendingBit                   0x0800b36b   Thumb Code    66  stm32f4xx_fsmc.o(.text)
    RCC_DeInit                               0x0800b3b1   Thumb Code    82  stm32f4xx_rcc.o(.text)
    RCC_HSEConfig                            0x0800b403   Thumb Code    14  stm32f4xx_rcc.o(.text)
    RCC_GetFlagStatus                        0x0800b411   Thumb Code    60  stm32f4xx_rcc.o(.text)
    RCC_WaitForHSEStartUp                    0x0800b44d   Thumb Code    56  stm32f4xx_rcc.o(.text)
    RCC_AdjustHSICalibrationValue            0x0800b485   Thumb Code    20  stm32f4xx_rcc.o(.text)
    RCC_HSICmd                               0x0800b499   Thumb Code     6  stm32f4xx_rcc.o(.text)
    RCC_LSEConfig                            0x0800b49f   Thumb Code    46  stm32f4xx_rcc.o(.text)
    RCC_LSICmd                               0x0800b4cd   Thumb Code     6  stm32f4xx_rcc.o(.text)
    RCC_PLLConfig                            0x0800b4d3   Thumb Code    32  stm32f4xx_rcc.o(.text)
    RCC_PLLCmd                               0x0800b4f3   Thumb Code     6  stm32f4xx_rcc.o(.text)
    RCC_PLLI2SConfig                         0x0800b4f9   Thumb Code    14  stm32f4xx_rcc.o(.text)
    RCC_PLLI2SCmd                            0x0800b507   Thumb Code     6  stm32f4xx_rcc.o(.text)
    RCC_PLLSAIConfig                         0x0800b50d   Thumb Code    20  stm32f4xx_rcc.o(.text)
    RCC_PLLSAICmd                            0x0800b521   Thumb Code     6  stm32f4xx_rcc.o(.text)
    RCC_ClockSecuritySystemCmd               0x0800b527   Thumb Code     6  stm32f4xx_rcc.o(.text)
    RCC_MCO1Config                           0x0800b52d   Thumb Code    28  stm32f4xx_rcc.o(.text)
    RCC_MCO2Config                           0x0800b549   Thumb Code    28  stm32f4xx_rcc.o(.text)
    RCC_SYSCLKConfig                         0x0800b565   Thumb Code    20  stm32f4xx_rcc.o(.text)
    RCC_GetSYSCLKSource                      0x0800b579   Thumb Code    12  stm32f4xx_rcc.o(.text)
    RCC_HCLKConfig                           0x0800b585   Thumb Code    20  stm32f4xx_rcc.o(.text)
    RCC_PCLK1Config                          0x0800b599   Thumb Code    20  stm32f4xx_rcc.o(.text)
    RCC_PCLK2Config                          0x0800b5ad   Thumb Code    22  stm32f4xx_rcc.o(.text)
    RCC_GetClocksFreq                        0x0800b5c3   Thumb Code   222  stm32f4xx_rcc.o(.text)
    RCC_RTCCLKConfig                         0x0800b6a1   Thumb Code    54  stm32f4xx_rcc.o(.text)
    RCC_RTCCLKCmd                            0x0800b6d7   Thumb Code     8  stm32f4xx_rcc.o(.text)
    RCC_BackupResetCmd                       0x0800b6df   Thumb Code     8  stm32f4xx_rcc.o(.text)
    RCC_I2SCLKConfig                         0x0800b6e7   Thumb Code     6  stm32f4xx_rcc.o(.text)
    RCC_SAIPLLI2SClkDivConfig                0x0800b6ed   Thumb Code    26  stm32f4xx_rcc.o(.text)
    RCC_SAIPLLSAIClkDivConfig                0x0800b707   Thumb Code    28  stm32f4xx_rcc.o(.text)
    RCC_SAIBlockACLKConfig                   0x0800b723   Thumb Code    20  stm32f4xx_rcc.o(.text)
    RCC_SAIBlockBCLKConfig                   0x0800b737   Thumb Code    20  stm32f4xx_rcc.o(.text)
    RCC_LTDCCLKDivConfig                     0x0800b74b   Thumb Code    20  stm32f4xx_rcc.o(.text)
    RCC_TIMCLKPresConfig                     0x0800b75f   Thumb Code     6  stm32f4xx_rcc.o(.text)
    RCC_AHB1PeriphClockCmd                   0x0800b765   Thumb Code    34  stm32f4xx_rcc.o(.text)
    RCC_AHB2PeriphClockCmd                   0x0800b787   Thumb Code    78  stm32f4xx_rcc.o(.text)
    RCC_AHB3PeriphClockCmd                   0x0800b7d5   Thumb Code    34  stm32f4xx_rcc.o(.text)
    RCC_APB1PeriphClockCmd                   0x0800b7f7   Thumb Code    34  stm32f4xx_rcc.o(.text)
    RCC_APB2PeriphClockCmd                   0x0800b819   Thumb Code    34  stm32f4xx_rcc.o(.text)
    RCC_AHB1PeriphResetCmd                   0x0800b83b   Thumb Code    34  stm32f4xx_rcc.o(.text)
    RCC_AHB2PeriphResetCmd                   0x0800b85d   Thumb Code    34  stm32f4xx_rcc.o(.text)
    RCC_AHB3PeriphResetCmd                   0x0800b87f   Thumb Code    34  stm32f4xx_rcc.o(.text)
    RCC_APB1PeriphResetCmd                   0x0800b8a1   Thumb Code    34  stm32f4xx_rcc.o(.text)
    RCC_APB2PeriphResetCmd                   0x0800b8c3   Thumb Code    34  stm32f4xx_rcc.o(.text)
    RCC_AHB1PeriphClockLPModeCmd             0x0800b8e5   Thumb Code    34  stm32f4xx_rcc.o(.text)
    RCC_AHB2PeriphClockLPModeCmd             0x0800b907   Thumb Code    34  stm32f4xx_rcc.o(.text)
    RCC_AHB3PeriphClockLPModeCmd             0x0800b929   Thumb Code    34  stm32f4xx_rcc.o(.text)
    RCC_APB1PeriphClockLPModeCmd             0x0800b94b   Thumb Code    34  stm32f4xx_rcc.o(.text)
    RCC_APB2PeriphClockLPModeCmd             0x0800b96d   Thumb Code    34  stm32f4xx_rcc.o(.text)
    RCC_LSEModeConfig                        0x0800b98f   Thumb Code    40  stm32f4xx_rcc.o(.text)
    RCC_ITConfig                             0x0800b9b7   Thumb Code    34  stm32f4xx_rcc.o(.text)
    RCC_ClearFlag                            0x0800b9d9   Thumb Code    18  stm32f4xx_rcc.o(.text)
    RCC_GetITStatus                          0x0800b9eb   Thumb Code    22  stm32f4xx_rcc.o(.text)
    RCC_ClearITPendingBit                    0x0800ba01   Thumb Code     8  stm32f4xx_rcc.o(.text)
    USART_DeInit                             0x0800ba0d   Thumb Code   206  stm32f4xx_usart.o(.text)
    USART_Init                               0x0800badb   Thumb Code   204  stm32f4xx_usart.o(.text)
    USART_StructInit                         0x0800bba7   Thumb Code    24  stm32f4xx_usart.o(.text)
    USART_ClockInit                          0x0800bbbf   Thumb Code    32  stm32f4xx_usart.o(.text)
    USART_ClockStructInit                    0x0800bbdf   Thumb Code    12  stm32f4xx_usart.o(.text)
    USART_Cmd                                0x0800bbeb   Thumb Code    24  stm32f4xx_usart.o(.text)
    USART_SetPrescaler                       0x0800bc03   Thumb Code    16  stm32f4xx_usart.o(.text)
    USART_OverSampling8Cmd                   0x0800bc13   Thumb Code    22  stm32f4xx_usart.o(.text)
    USART_OneBitMethodCmd                    0x0800bc29   Thumb Code    24  stm32f4xx_usart.o(.text)
    USART_SendData                           0x0800bc41   Thumb Code     8  stm32f4xx_usart.o(.text)
    USART_ReceiveData                        0x0800bc49   Thumb Code    10  stm32f4xx_usart.o(.text)
    USART_SetAddress                         0x0800bc53   Thumb Code    18  stm32f4xx_usart.o(.text)
    USART_ReceiverWakeUpCmd                  0x0800bc65   Thumb Code    24  stm32f4xx_usart.o(.text)
    USART_WakeUpConfig                       0x0800bc7d   Thumb Code    18  stm32f4xx_usart.o(.text)
    USART_LINBreakDetectLengthConfig         0x0800bc8f   Thumb Code    18  stm32f4xx_usart.o(.text)
    USART_LINCmd                             0x0800bca1   Thumb Code    24  stm32f4xx_usart.o(.text)
    USART_SendBreak                          0x0800bcb9   Thumb Code    10  stm32f4xx_usart.o(.text)
    USART_HalfDuplexCmd                      0x0800bcc3   Thumb Code    24  stm32f4xx_usart.o(.text)
    USART_SetGuardTime                       0x0800bcdb   Thumb Code    16  stm32f4xx_usart.o(.text)
    USART_SmartCardCmd                       0x0800bceb   Thumb Code    24  stm32f4xx_usart.o(.text)
    USART_SmartCardNACKCmd                   0x0800bd03   Thumb Code    24  stm32f4xx_usart.o(.text)
    USART_IrDAConfig                         0x0800bd1b   Thumb Code    18  stm32f4xx_usart.o(.text)
    USART_IrDACmd                            0x0800bd2d   Thumb Code    24  stm32f4xx_usart.o(.text)
    USART_DMACmd                             0x0800bd45   Thumb Code    18  stm32f4xx_usart.o(.text)
    USART_ITConfig                           0x0800bd57   Thumb Code    74  stm32f4xx_usart.o(.text)
    USART_GetFlagStatus                      0x0800bda1   Thumb Code    26  stm32f4xx_usart.o(.text)
    USART_ClearFlag                          0x0800bdbb   Thumb Code    18  stm32f4xx_usart.o(.text)
    USART_GetITStatus                        0x0800bdcd   Thumb Code   118  stm32f4xx_usart.o(.text)
    USART_ClearITPendingBit                  0x0800be43   Thumb Code    30  stm32f4xx_usart.o(.text)
    TIM_DeInit                               0x0800be61   Thumb Code   346  stm32f4xx_tim.o(.text)
    TIM_TimeBaseInit                         0x0800bfbb   Thumb Code   104  stm32f4xx_tim.o(.text)
    TIM_TimeBaseStructInit                   0x0800c023   Thumb Code    18  stm32f4xx_tim.o(.text)
    TIM_PrescalerConfig                      0x0800c035   Thumb Code     6  stm32f4xx_tim.o(.text)
    TIM_CounterModeConfig                    0x0800c03b   Thumb Code    18  stm32f4xx_tim.o(.text)
    TIM_SetCounter                           0x0800c04d   Thumb Code     4  stm32f4xx_tim.o(.text)
    TIM_SetAutoreload                        0x0800c051   Thumb Code     4  stm32f4xx_tim.o(.text)
    TIM_GetCounter                           0x0800c055   Thumb Code     6  stm32f4xx_tim.o(.text)
    TIM_GetPrescaler                         0x0800c05b   Thumb Code     6  stm32f4xx_tim.o(.text)
    TIM_UpdateDisableConfig                  0x0800c061   Thumb Code    24  stm32f4xx_tim.o(.text)
    TIM_UpdateRequestConfig                  0x0800c079   Thumb Code    24  stm32f4xx_tim.o(.text)
    TIM_ARRPreloadConfig                     0x0800c091   Thumb Code    24  stm32f4xx_tim.o(.text)
    TIM_SelectOnePulseMode                   0x0800c0a9   Thumb Code    18  stm32f4xx_tim.o(.text)
    TIM_SetClockDivision                     0x0800c0bb   Thumb Code    18  stm32f4xx_tim.o(.text)
    TIM_Cmd                                  0x0800c0cd   Thumb Code    24  stm32f4xx_tim.o(.text)
    TIM_OC1Init                              0x0800c0e5   Thumb Code   114  stm32f4xx_tim.o(.text)
    TIM_OC2Init                              0x0800c157   Thumb Code   154  stm32f4xx_tim.o(.text)
    TIM_OC3Init                              0x0800c1f1   Thumb Code   204  stm32f4xx_tim.o(.text)
    TIM_OC4Init                              0x0800c2bd   Thumb Code   112  stm32f4xx_tim.o(.text)
    TIM_OCStructInit                         0x0800c32d   Thumb Code    20  stm32f4xx_tim.o(.text)
    TIM_SelectOCxM                           0x0800c341   Thumb Code    86  stm32f4xx_tim.o(.text)
    TIM_SetCompare1                          0x0800c397   Thumb Code     4  stm32f4xx_tim.o(.text)
    TIM_SetCompare2                          0x0800c39b   Thumb Code     4  stm32f4xx_tim.o(.text)
    TIM_SetCompare3                          0x0800c39f   Thumb Code     4  stm32f4xx_tim.o(.text)
    TIM_SetCompare4                          0x0800c3a3   Thumb Code     4  stm32f4xx_tim.o(.text)
    TIM_ForcedOC1Config                      0x0800c3a7   Thumb Code    18  stm32f4xx_tim.o(.text)
    TIM_ForcedOC2Config                      0x0800c3b9   Thumb Code    26  stm32f4xx_tim.o(.text)
    TIM_ForcedOC3Config                      0x0800c3d3   Thumb Code    18  stm32f4xx_tim.o(.text)
    TIM_ForcedOC4Config                      0x0800c3e5   Thumb Code    26  stm32f4xx_tim.o(.text)
    TIM_OC1PreloadConfig                     0x0800c3ff   Thumb Code    18  stm32f4xx_tim.o(.text)
    TIM_OC2PreloadConfig                     0x0800c411   Thumb Code    26  stm32f4xx_tim.o(.text)
    TIM_OC3PreloadConfig                     0x0800c42b   Thumb Code    18  stm32f4xx_tim.o(.text)
    TIM_OC4PreloadConfig                     0x0800c43d   Thumb Code    26  stm32f4xx_tim.o(.text)
    TIM_OC1FastConfig                        0x0800c457   Thumb Code    18  stm32f4xx_tim.o(.text)
    TIM_OC2FastConfig                        0x0800c469   Thumb Code    26  stm32f4xx_tim.o(.text)
    TIM_OC3FastConfig                        0x0800c483   Thumb Code    18  stm32f4xx_tim.o(.text)
    TIM_OC4FastConfig                        0x0800c495   Thumb Code    26  stm32f4xx_tim.o(.text)
    TIM_ClearOC1Ref                          0x0800c4af   Thumb Code    18  stm32f4xx_tim.o(.text)
    TIM_ClearOC2Ref                          0x0800c4c1   Thumb Code    24  stm32f4xx_tim.o(.text)
    TIM_ClearOC3Ref                          0x0800c4d9   Thumb Code    18  stm32f4xx_tim.o(.text)
    TIM_ClearOC4Ref                          0x0800c4eb   Thumb Code    24  stm32f4xx_tim.o(.text)
    TIM_OC1PolarityConfig                    0x0800c503   Thumb Code    18  stm32f4xx_tim.o(.text)
    TIM_OC1NPolarityConfig                   0x0800c515   Thumb Code    18  stm32f4xx_tim.o(.text)
    TIM_OC2PolarityConfig                    0x0800c527   Thumb Code    26  stm32f4xx_tim.o(.text)
    TIM_OC2NPolarityConfig                   0x0800c541   Thumb Code    26  stm32f4xx_tim.o(.text)
    TIM_OC3PolarityConfig                    0x0800c55b   Thumb Code    26  stm32f4xx_tim.o(.text)
    TIM_OC3NPolarityConfig                   0x0800c575   Thumb Code    26  stm32f4xx_tim.o(.text)
    TIM_OC4PolarityConfig                    0x0800c58f   Thumb Code    26  stm32f4xx_tim.o(.text)
    TIM_CCxCmd                               0x0800c5a9   Thumb Code    30  stm32f4xx_tim.o(.text)
    TIM_CCxNCmd                              0x0800c5c7   Thumb Code    30  stm32f4xx_tim.o(.text)
    TIM_SetIC4Prescaler                      0x0800c5e5   Thumb Code    26  stm32f4xx_tim.o(.text)
    TIM_SetIC3Prescaler                      0x0800c64f   Thumb Code    18  stm32f4xx_tim.o(.text)
    TIM_SetIC2Prescaler                      0x0800c6a9   Thumb Code    26  stm32f4xx_tim.o(.text)
    TIM_SetIC1Prescaler                      0x0800c71d   Thumb Code    18  stm32f4xx_tim.o(.text)
    TIM_ICInit                               0x0800c769   Thumb Code   110  stm32f4xx_tim.o(.text)
    TIM_ICStructInit                         0x0800c7d7   Thumb Code    18  stm32f4xx_tim.o(.text)
    TIM_PWMIConfig                           0x0800c7e9   Thumb Code   124  stm32f4xx_tim.o(.text)
    TIM_GetCapture1                          0x0800c865   Thumb Code     6  stm32f4xx_tim.o(.text)
    TIM_GetCapture2                          0x0800c86b   Thumb Code     6  stm32f4xx_tim.o(.text)
    TIM_GetCapture3                          0x0800c871   Thumb Code     6  stm32f4xx_tim.o(.text)
    TIM_GetCapture4                          0x0800c877   Thumb Code     6  stm32f4xx_tim.o(.text)
    TIM_BDTRConfig                           0x0800c87d   Thumb Code    32  stm32f4xx_tim.o(.text)
    TIM_BDTRStructInit                       0x0800c89d   Thumb Code    18  stm32f4xx_tim.o(.text)
    TIM_CtrlPWMOutputs                       0x0800c8af   Thumb Code    30  stm32f4xx_tim.o(.text)
    TIM_SelectCOM                            0x0800c8cd   Thumb Code    24  stm32f4xx_tim.o(.text)
    TIM_CCPreloadControl                     0x0800c8e5   Thumb Code    24  stm32f4xx_tim.o(.text)
    TIM_ITConfig                             0x0800c8fd   Thumb Code    18  stm32f4xx_tim.o(.text)
    TIM_GenerateEvent                        0x0800c90f   Thumb Code     4  stm32f4xx_tim.o(.text)
    TIM_GetFlagStatus                        0x0800c913   Thumb Code    18  stm32f4xx_tim.o(.text)
    TIM_ClearFlag                            0x0800c925   Thumb Code     6  stm32f4xx_tim.o(.text)
    TIM_GetITStatus                          0x0800c92b   Thumb Code    34  stm32f4xx_tim.o(.text)
    TIM_ClearITPendingBit                    0x0800c94d   Thumb Code     6  stm32f4xx_tim.o(.text)
    TIM_DMAConfig                            0x0800c953   Thumb Code    10  stm32f4xx_tim.o(.text)
    TIM_DMACmd                               0x0800c95d   Thumb Code    18  stm32f4xx_tim.o(.text)
    TIM_SelectCCDMA                          0x0800c96f   Thumb Code    24  stm32f4xx_tim.o(.text)
    TIM_InternalClockConfig                  0x0800c987   Thumb Code    12  stm32f4xx_tim.o(.text)
    TIM_SelectInputTrigger                   0x0800c993   Thumb Code    18  stm32f4xx_tim.o(.text)
    TIM_ITRxExternalClockConfig              0x0800c9a5   Thumb Code    24  stm32f4xx_tim.o(.text)
    TIM_TIxExternalClockConfig               0x0800c9bd   Thumb Code    62  stm32f4xx_tim.o(.text)
    TIM_ETRConfig                            0x0800c9fb   Thumb Code    28  stm32f4xx_tim.o(.text)
    TIM_ETRClockMode1Config                  0x0800ca17   Thumb Code    54  stm32f4xx_tim.o(.text)
    TIM_ETRClockMode2Config                  0x0800ca4d   Thumb Code    32  stm32f4xx_tim.o(.text)
    TIM_SelectOutputTrigger                  0x0800ca6d   Thumb Code    18  stm32f4xx_tim.o(.text)
    TIM_SelectSlaveMode                      0x0800ca7f   Thumb Code    18  stm32f4xx_tim.o(.text)
    TIM_SelectMasterSlaveMode                0x0800ca91   Thumb Code    18  stm32f4xx_tim.o(.text)
    TIM_EncoderInterfaceConfig               0x0800caa3   Thumb Code    66  stm32f4xx_tim.o(.text)
    TIM_SelectHallSensor                     0x0800cae5   Thumb Code    24  stm32f4xx_tim.o(.text)
    TIM_RemapConfig                          0x0800cafd   Thumb Code     6  stm32f4xx_tim.o(.text)
    SPI_I2S_DeInit                           0x0800cb05   Thumb Code   152  stm32f4xx_spi.o(.text)
    SPI_Init                                 0x0800cb9d   Thumb Code    60  stm32f4xx_spi.o(.text)
    I2S_Init                                 0x0800cbd9   Thumb Code   396  stm32f4xx_spi.o(.text)
    SPI_StructInit                           0x0800cd65   Thumb Code    24  stm32f4xx_spi.o(.text)
    I2S_StructInit                           0x0800cd7d   Thumb Code    20  stm32f4xx_spi.o(.text)
    SPI_Cmd                                  0x0800cd91   Thumb Code    24  stm32f4xx_spi.o(.text)
    I2S_Cmd                                  0x0800cda9   Thumb Code    24  stm32f4xx_spi.o(.text)
    SPI_DataSizeConfig                       0x0800cdc1   Thumb Code    18  stm32f4xx_spi.o(.text)
    SPI_BiDirectionalLineConfig              0x0800cdd3   Thumb Code    28  stm32f4xx_spi.o(.text)
    SPI_NSSInternalSoftwareConfig            0x0800cdef   Thumb Code    30  stm32f4xx_spi.o(.text)
    SPI_SSOutputCmd                          0x0800ce0d   Thumb Code    24  stm32f4xx_spi.o(.text)
    SPI_TIModeCmd                            0x0800ce25   Thumb Code    24  stm32f4xx_spi.o(.text)
    I2S_FullDuplexConfig                     0x0800ce3d   Thumb Code    80  stm32f4xx_spi.o(.text)
    SPI_I2S_ReceiveData                      0x0800ce8d   Thumb Code     6  stm32f4xx_spi.o(.text)
    SPI_I2S_SendData                         0x0800ce93   Thumb Code     4  stm32f4xx_spi.o(.text)
    SPI_CalculateCRC                         0x0800ce97   Thumb Code    24  stm32f4xx_spi.o(.text)
    SPI_TransmitCRC                          0x0800ceaf   Thumb Code    10  stm32f4xx_spi.o(.text)
    SPI_GetCRC                               0x0800ceb9   Thumb Code    16  stm32f4xx_spi.o(.text)
    SPI_GetCRCPolynomial                     0x0800cec9   Thumb Code     6  stm32f4xx_spi.o(.text)
    SPI_I2S_DMACmd                           0x0800cecf   Thumb Code    18  stm32f4xx_spi.o(.text)
    SPI_I2S_ITConfig                         0x0800cee1   Thumb Code    68  stm32f4xx_spi.o(.text)
    SPI_I2S_GetFlagStatus                    0x0800cf25   Thumb Code    18  stm32f4xx_spi.o(.text)
    SPI_I2S_ClearFlag                        0x0800cf37   Thumb Code     6  stm32f4xx_spi.o(.text)
    SPI_I2S_GetITStatus                      0x0800cf3d   Thumb Code    52  stm32f4xx_spi.o(.text)
    SPI_I2S_ClearITPendingBit                0x0800cf71   Thumb Code    20  stm32f4xx_spi.o(.text)
    SDIO_DeInit                              0x0800cf85   Thumb Code    22  stm32f4xx_sdio.o(.text)
    SDIO_Init                                0x0800cf9b   Thumb Code    42  stm32f4xx_sdio.o(.text)
    SDIO_StructInit                          0x0800cfc5   Thumb Code    16  stm32f4xx_sdio.o(.text)
    SDIO_ClockCmd                            0x0800cfd5   Thumb Code     6  stm32f4xx_sdio.o(.text)
    SDIO_SetPowerState                       0x0800cfdb   Thumb Code     8  stm32f4xx_sdio.o(.text)
    SDIO_GetPowerState                       0x0800cfe3   Thumb Code    12  stm32f4xx_sdio.o(.text)
    SDIO_SendCommand                         0x0800cfef   Thumb Code    42  stm32f4xx_sdio.o(.text)
    SDIO_CmdStructInit                       0x0800d019   Thumb Code    14  stm32f4xx_sdio.o(.text)
    SDIO_GetCommandResponse                  0x0800d027   Thumb Code    10  stm32f4xx_sdio.o(.text)
    SDIO_GetResponse                         0x0800d031   Thumb Code    22  stm32f4xx_sdio.o(.text)
    SDIO_DataConfig                          0x0800d047   Thumb Code    48  stm32f4xx_sdio.o(.text)
    SDIO_DataStructInit                      0x0800d077   Thumb Code    20  stm32f4xx_sdio.o(.text)
    SDIO_GetDataCounter                      0x0800d08b   Thumb Code     8  stm32f4xx_sdio.o(.text)
    SDIO_ReadData                            0x0800d093   Thumb Code     8  stm32f4xx_sdio.o(.text)
    SDIO_WriteData                           0x0800d09b   Thumb Code     8  stm32f4xx_sdio.o(.text)
    SDIO_GetFIFOCount                        0x0800d0a3   Thumb Code     8  stm32f4xx_sdio.o(.text)
    SDIO_StartSDIOReadWait                   0x0800d0ab   Thumb Code     6  stm32f4xx_sdio.o(.text)
    SDIO_StopSDIOReadWait                    0x0800d0b1   Thumb Code     8  stm32f4xx_sdio.o(.text)
    SDIO_SetSDIOReadWaitMode                 0x0800d0b9   Thumb Code     8  stm32f4xx_sdio.o(.text)
    SDIO_SetSDIOOperation                    0x0800d0c1   Thumb Code     8  stm32f4xx_sdio.o(.text)
    SDIO_SendSDIOSuspendCmd                  0x0800d0c9   Thumb Code     6  stm32f4xx_sdio.o(.text)
    SDIO_CommandCompletionCmd                0x0800d0cf   Thumb Code     8  stm32f4xx_sdio.o(.text)
    SDIO_CEATAITCmd                          0x0800d0d7   Thumb Code    12  stm32f4xx_sdio.o(.text)
    SDIO_SendCEATACmd                        0x0800d0e3   Thumb Code     8  stm32f4xx_sdio.o(.text)
    SDIO_DMACmd                              0x0800d0eb   Thumb Code     8  stm32f4xx_sdio.o(.text)
    SDIO_ITConfig                            0x0800d0f3   Thumb Code    34  stm32f4xx_sdio.o(.text)
    SDIO_GetFlagStatus                       0x0800d115   Thumb Code    22  stm32f4xx_sdio.o(.text)
    SDIO_ClearFlag                           0x0800d12b   Thumb Code     8  stm32f4xx_sdio.o(.text)
    SDIO_GetITStatus                         0x0800d133   Thumb Code    22  stm32f4xx_sdio.o(.text)
    SDIO_ClearITPendingBit                   0x0800d149   Thumb Code     8  stm32f4xx_sdio.o(.text)
    DMA_DeInit                               0x0800d161   Thumb Code   324  stm32f4xx_dma.o(.text)
    DMA_Init                                 0x0800d2a5   Thumb Code    82  stm32f4xx_dma.o(.text)
    DMA_StructInit                           0x0800d2f7   Thumb Code    34  stm32f4xx_dma.o(.text)
    DMA_Cmd                                  0x0800d319   Thumb Code    22  stm32f4xx_dma.o(.text)
    DMA_PeriphIncOffsetSizeConfig            0x0800d32f   Thumb Code    22  stm32f4xx_dma.o(.text)
    DMA_FlowControllerConfig                 0x0800d345   Thumb Code    22  stm32f4xx_dma.o(.text)
    DMA_SetCurrDataCounter                   0x0800d35b   Thumb Code     4  stm32f4xx_dma.o(.text)
    DMA_GetCurrDataCounter                   0x0800d35f   Thumb Code     8  stm32f4xx_dma.o(.text)
    DMA_DoubleBufferModeConfig               0x0800d367   Thumb Code    24  stm32f4xx_dma.o(.text)
    DMA_DoubleBufferModeCmd                  0x0800d37f   Thumb Code    22  stm32f4xx_dma.o(.text)
    DMA_MemoryTargetConfig                   0x0800d395   Thumb Code    10  stm32f4xx_dma.o(.text)
    DMA_GetCurrentMemoryTarget               0x0800d39f   Thumb Code    20  stm32f4xx_dma.o(.text)
    DMA_GetCmdStatus                         0x0800d3b3   Thumb Code    20  stm32f4xx_dma.o(.text)
    DMA_GetFIFOStatus                        0x0800d3c7   Thumb Code    12  stm32f4xx_dma.o(.text)
    DMA_GetFlagStatus                        0x0800d3d3   Thumb Code    56  stm32f4xx_dma.o(.text)
    DMA_ClearFlag                            0x0800d40b   Thumb Code    40  stm32f4xx_dma.o(.text)
    DMA_ITConfig                             0x0800d433   Thumb Code    58  stm32f4xx_dma.o(.text)
    DMA_GetITStatus                          0x0800d46d   Thumb Code    84  stm32f4xx_dma.o(.text)
    DMA_ClearITPendingBit                    0x0800d4c1   Thumb Code    40  stm32f4xx_dma.o(.text)
    mymemcpy                                 0x0800d509   Thumb Code    26  malloc.o(.text)
    mymemset                                 0x0800d523   Thumb Code    20  malloc.o(.text)
    my_mem_init                              0x0800d537   Thumb Code    54  malloc.o(.text)
    my_mem_perused                           0x0800d56d   Thumb Code    54  malloc.o(.text)
    my_mem_malloc                            0x0800d5a3   Thumb Code   154  malloc.o(.text)
    my_mem_free                              0x0800d63d   Thumb Code    94  malloc.o(.text)
    myfree                                   0x0800d69b   Thumb Code    50  malloc.o(.text)
    mymalloc                                 0x0800d6cd   Thumb Code    54  malloc.o(.text)
    myrealloc                                0x0800d703   Thumb Code    84  malloc.o(.text)
    usmart_sys_cmd_exe                       0x0800d769   Thumb Code  1554  usmart.o(.text)
    usmart_reset_runtime                     0x0800dd7b   Thumb Code    38  usmart.o(.text)
    usmart_get_runtime                       0x0800dda1   Thumb Code    60  usmart.o(.text)
    TIM4_IRQHandler                          0x0800dddd   Thumb Code    46  usmart.o(.text)
    Timer4_Init                              0x0800de0b   Thumb Code    86  usmart.o(.text)
    usmart_init                              0x0800de61   Thumb Code    36  usmart.o(.text)
    usmart_cmd_rec                           0x0800de85   Thumb Code   170  usmart.o(.text)
    usmart_exe                               0x0800df2f   Thumb Code   868  usmart.o(.text)
    usmart_scan                              0x0800e293   Thumb Code   120  usmart.o(.text)
    read_addr                                0x0800e30b   Thumb Code     6  usmart.o(.text)
    write_addr                               0x0800e311   Thumb Code     4  usmart.o(.text)
    usmart_strcmp                            0x0800e39d   Thumb Code    34  usmart_str.o(.text)
    usmart_strcopy                           0x0800e3bf   Thumb Code    22  usmart_str.o(.text)
    usmart_strlen                            0x0800e3d5   Thumb Code    24  usmart_str.o(.text)
    usmart_pow                               0x0800e3ed   Thumb Code    22  usmart_str.o(.text)
    usmart_str2num                           0x0800e403   Thumb Code   202  usmart_str.o(.text)
    usmart_get_cmdname                       0x0800e4cd   Thumb Code    54  usmart_str.o(.text)
    usmart_search_nextc                      0x0800e503   Thumb Code    22  usmart_str.o(.text)
    usmart_get_fname                         0x0800e519   Thumb Code   440  usmart_str.o(.text)
    usmart_get_aparm                         0x0800e6d1   Thumb Code   200  usmart_str.o(.text)
    usmart_get_parmpos                       0x0800e799   Thumb Code    26  usmart_str.o(.text)
    usmart_get_fparam                        0x0800e7b3   Thumb Code   262  usmart_str.o(.text)
    disk_initialize                          0x0800e8c5   Thumb Code    52  diskio.o(.text)
    disk_status                              0x0800e8f9   Thumb Code     6  diskio.o(.text)
    disk_read                                0x0800e8ff   Thumb Code   122  diskio.o(.text)
    disk_write                               0x0800e979   Thumb Code   122  diskio.o(.text)
    disk_ioctl                               0x0800e9f3   Thumb Code   170  diskio.o(.text)
    get_fattime                              0x0800ea9d   Thumb Code     4  diskio.o(.text)
    ff_memalloc                              0x0800eaa1   Thumb Code    14  diskio.o(.text)
    ff_memfree                               0x0800eaaf   Thumb Code    14  diskio.o(.text)
    clust2sect                               0x0800ec73   Thumb Code    26  ff.o(.text)
    get_fat                                  0x0800ec8d   Thumb Code   232  ff.o(.text)
    put_fat                                  0x0800ed75   Thumb Code   310  ff.o(.text)
    dir_sdi                                  0x0800f01f   Thumb Code   158  ff.o(.text)
    f_mount                                  0x08010091   Thumb Code    86  ff.o(.text)
    f_open                                   0x080100e7   Thumb Code   384  ff.o(.text)
    f_read                                   0x08010267   Thumb Code   448  ff.o(.text)
    f_write                                  0x08010427   Thumb Code   490  ff.o(.text)
    f_sync                                   0x08010611   Thumb Code   176  ff.o(.text)
    f_close                                  0x080106c1   Thumb Code    36  ff.o(.text)
    f_lseek                                  0x080106e5   Thumb Code   654  ff.o(.text)
    f_opendir                                0x08010973   Thumb Code   136  ff.o(.text)
    f_closedir                               0x080109fb   Thumb Code    22  ff.o(.text)
    f_readdir                                0x08010a11   Thumb Code   114  ff.o(.text)
    f_stat                                   0x08010a83   Thumb Code    84  ff.o(.text)
    f_getfree                                0x08010ad7   Thumb Code   258  ff.o(.text)
    f_truncate                               0x08010bd9   Thumb Code   184  ff.o(.text)
    f_unlink                                 0x08010c91   Thumb Code   194  ff.o(.text)
    f_mkdir                                  0x08010d53   Thumb Code   380  ff.o(.text)
    f_chmod                                  0x08010ecf   Thumb Code   112  ff.o(.text)
    f_utime                                  0x08010f3f   Thumb Code   110  ff.o(.text)
    f_rename                                 0x08010fad   Thumb Code   314  ff.o(.text)
    f_getlabel                               0x080110e7   Thumb Code   190  ff.o(.text)
    f_setlabel                               0x080111a5   Thumb Code   470  ff.o(.text)
    f_mkfs                                   0x0801137b   Thumb Code  1570  ff.o(.text)
    f_gets                                   0x0801199d   Thumb Code    82  ff.o(.text)
    f_putc                                   0x08011a33   Thumb Code    64  ff.o(.text)
    f_puts                                   0x08011a73   Thumb Code    74  ff.o(.text)
    f_printf                                 0x08011abd   Thumb Code   674  ff.o(.text)
    exfuns_init                              0x08011d61   Thumb Code   114  exfuns.o(.text)
    char_upper                               0x08011dd3   Thumb Code    26  exfuns.o(.text)
    f_typetell                               0x08011ded   Thumb Code   172  exfuns.o(.text)
    exf_getfree                              0x08011e99   Thumb Code    74  exfuns.o(.text)
    mf_mount                                 0x08011ef9   Thumb Code    20  fattester.o(.text)
    mf_open                                  0x08011f0d   Thumb Code    24  fattester.o(.text)
    mf_close                                 0x08011f25   Thumb Code    14  fattester.o(.text)
    mf_read                                  0x08011f33   Thumb Code   224  fattester.o(.text)
    mf_write                                 0x08012013   Thumb Code    68  fattester.o(.text)
    mf_opendir                               0x08012057   Thumb Code    14  fattester.o(.text)
    mf_closedir                              0x08012065   Thumb Code    10  fattester.o(.text)
    mf_readdir                               0x0801206f   Thumb Code   204  fattester.o(.text)
    mf_scan_files                            0x0801213b   Thumb Code   128  fattester.o(.text)
    mf_showfree                              0x080121bb   Thumb Code    88  fattester.o(.text)
    mf_lseek                                 0x08012213   Thumb Code    16  fattester.o(.text)
    mf_tell                                  0x08012223   Thumb Code     8  fattester.o(.text)
    mf_size                                  0x0801222b   Thumb Code     8  fattester.o(.text)
    mf_mkdir                                 0x08012233   Thumb Code    12  fattester.o(.text)
    mf_fmkfs                                 0x0801223f   Thumb Code    20  fattester.o(.text)
    mf_unlink                                0x08012253   Thumb Code    12  fattester.o(.text)
    mf_rename                                0x0801225f   Thumb Code    16  fattester.o(.text)
    mf_getlabel                              0x0801226f   Thumb Code    58  fattester.o(.text)
    mf_setlabel                              0x080122a9   Thumb Code    34  fattester.o(.text)
    mf_gets                                  0x080122cb   Thumb Code   686  fattester.o(.text)
    mf_putc                                  0x08012579   Thumb Code    18  fattester.o(.text)
    mf_puts                                  0x0801258b   Thumb Code    18  fattester.o(.text)
    mf_scan_dir                              0x0801259d   Thumb Code   386  fattester.o(.text)
    file_manage                              0x0801271f   Thumb Code   350  fattester.o(.text)
    ff_convert                               0x080128c5   Thumb Code   146  mycc936.o(.text)
    ff_wtoupper                              0x08012957   Thumb Code    46  mycc936.o(.text)
    fupd_prog                                0x08012991   Thumb Code   148  fontupd.o(.text)
    updata_fontx                             0x08012a25   Thumb Code   346  fontupd.o(.text)
    update_font                              0x08012b7f   Thumb Code   884  fontupd.o(.text)
    font_init                                0x08012ef3   Thumb Code    64  fontupd.o(.text)
    Get_HzMat                                0x08012f71   Thumb Code   220  text.o(.text)
    Show_Font                                0x0801304d   Thumb Code   190  text.o(.text)
    Show_Str                                 0x0801310b   Thumb Code   192  text.o(.text)
    Show_Str_Mid                             0x080131cb   Thumb Code   106  text.o(.text)
    audio_i2s_dma_callback                   0x08013245   Thumb Code    80  videoplayer.o(.text)
    video_get_tnum                           0x08013295   Thumb Code   116  videoplayer.o(.text)
    video_time_show                          0x08013309   Thumb Code   280  videoplayer.o(.text)
    video_info_show                          0x08013421   Thumb Code   130  videoplayer.o(.text)
    video_bmsg_show                          0x080134a3   Thumb Code   114  videoplayer.o(.text)
    video_play_mjpeg                         0x08013515   Thumb Code  1806  videoplayer.o(.text)
    video_play                               0x08013c23   Thumb Code   540  videoplayer.o(.text)
    video_seek                               0x08013e3f   Thumb Code   388  videoplayer.o(.text)
    avi_srarch_id                            0x08013fd5   Thumb Code    68  avi.o(.text)
    avi_init                                 0x08014019   Thumb Code   696  avi.o(.text)
    avi_get_streaminfo                       0x080142d1   Thumb Code    88  avi.o(.text)
    mjpeg_malloc                             0x0801444d   Thumb Code    44  mjpeg.o(.text)
    mjpegdec_free                            0x08014579   Thumb Code    34  mjpeg.o(.text)
    mjpegdec_init                            0x0801459b   Thumb Code    86  mjpeg.o(.text)
    mjpegdec_decode                          0x080145f1   Thumb Code   230  mjpeg.o(.text)
    jpeg_abort                               0x08014745   Thumb Code    54  jcomapi.o(.text)
    jpeg_destroy                             0x0801477b   Thumb Code    24  jcomapi.o(.text)
    jpeg_alloc_quant_table                   0x08014793   Thumb Code    28  jcomapi.o(.text)
    jpeg_alloc_huff_table                    0x080147af   Thumb Code    30  jcomapi.o(.text)
    jdiv_round_up                            0x080147cd   Thumb Code    12  jutils.o(.text)
    jround_up                                0x080147d9   Thumb Code    18  jutils.o(.text)
    jcopy_sample_rows                        0x080147eb   Thumb Code    66  jutils.o(.text)
    jcopy_block_row                          0x0801482d   Thumb Code    20  jutils.o(.text)
    jpeg_std_error                           0x0801495b   Thumb Code    48  jerror.o(.text)
    jinit_memory_mgr                         0x08015327   Thumb Code   244  jmemmgr.o(.text)
    jpeg_CreateDecompress                    0x0801545d   Thumb Code   188  jdapimin.o(.text)
    jpeg_destroy_decompress                  0x08015519   Thumb Code    12  jdapimin.o(.text)
    jpeg_abort_decompress                    0x08015525   Thumb Code    12  jdapimin.o(.text)
    jpeg_consume_input                       0x080156e7   Thumb Code   140  jdapimin.o(.text)
    jpeg_read_header                         0x08015773   Thumb Code    96  jdapimin.o(.text)
    jpeg_input_complete                      0x080157d3   Thumb Code    44  jdapimin.o(.text)
    jpeg_has_multiple_scans                  0x080157ff   Thumb Code    44  jdapimin.o(.text)
    jpeg_finish_decompress                   0x0801582b   Thumb Code   144  jdapimin.o(.text)
    jpeg_start_decompress                    0x08015959   Thumb Code   174  jdapistd.o(.text)
    jpeg_read_scanlines                      0x08015a07   Thumb Code    96  jdapistd.o(.text)
    jpeg_read_raw_data                       0x08015a67   Thumb Code   150  jdapistd.o(.text)
    jpeg_start_output                        0x08015afd   Thumb Code    70  jdapistd.o(.text)
    jpeg_finish_output                       0x08015b43   Thumb Code   108  jdapistd.o(.text)
    jinit_arith_decoder                      0x080167a3   Thumb Code   130  jdarith.o(.text)
    jpeg_calc_output_dimensions              0x0801691f   Thumb Code   376  jdmaster.o(.text)
    jpeg_new_colormap                        0x08016e21   Thumb Code    88  jdmaster.o(.text)
    jinit_master_decompress                  0x08016e79   Thumb Code    42  jdmaster.o(.text)
    jpeg_core_output_dimensions              0x08016ead   Thumb Code  1022  jdinput.o(.text)
    jinit_input_controller                   0x08017937   Thumb Code    50  jdinput.o(.text)
    jpeg_resync_to_restart                   0x080194ab   Thumb Code   192  jdmarker.o(.text)
    jinit_marker_reader                      0x08019587   Thumb Code    86  jdmarker.o(.text)
    jpeg_save_markers                        0x080195dd   Thumb Code   136  jdmarker.o(.text)
    jpeg_set_marker_processor                0x08019665   Thumb Code    66  jdmarker.o(.text)
    jinit_huff_decoder                       0x0801adeb   Thumb Code   144  jdhuff.o(.text)
    jinit_d_main_controller                  0x0801b2d9   Thumb Code   168  jdmainct.o(.text)
    jinit_d_coef_controller                  0x0801bd29   Thumb Code   212  jdcoefct.o(.text)
    jinit_d_post_controller                  0x0801c035   Thumb Code   118  jdpostct.o(.text)
    jinit_inverse_dct                        0x0801c4c7   Thumb Code    88  jddctmgr.o(.text)
    jpeg_idct_ifast                          0x0801c5bd   Thumb Code  1314  jidctfst.o(.text)
    jpeg_idct_float                          0x0801cae1   Thumb Code  1124  jidctflt.o(.text)
    jpeg_idct_islow                          0x0801cf59   Thumb Code  1218  jidctint.o(.text)
    jpeg_idct_7x7                            0x0801d41b   Thumb Code   826  jidctint.o(.text)
    jpeg_idct_6x6                            0x0801d755   Thumb Code   592  jidctint.o(.text)
    jpeg_idct_5x5                            0x0801d9a5   Thumb Code   512  jidctint.o(.text)
    jpeg_idct_4x4                            0x0801dba5   Thumb Code   386  jidctint.o(.text)
    jpeg_idct_3x3                            0x0801dd27   Thumb Code   262  jidctint.o(.text)
    jpeg_idct_2x2                            0x0801de2d   Thumb Code   182  jidctint.o(.text)
    jpeg_idct_1x1                            0x0801dee3   Thumb Code    56  jidctint.o(.text)
    jpeg_idct_9x9                            0x0801df1b   Thumb Code  1002  jidctint.o(.text)
    jpeg_idct_10x10                          0x0801e305   Thumb Code  1094  jidctint.o(.text)
    jpeg_idct_11x11                          0x0801e74b   Thumb Code  1454  jidctint.o(.text)
    jpeg_idct_12x12                          0x0801ecf9   Thumb Code  1332  jidctint.o(.text)
    jpeg_idct_13x13                          0x0801f22d   Thumb Code  1598  jidctint.o(.text)
    jpeg_idct_14x14                          0x0801f86b   Thumb Code  1534  jidctint.o(.text)
    jpeg_idct_15x15                          0x0801fe69   Thumb Code  1586  jidctint.o(.text)
    jpeg_idct_16x16                          0x0802049b   Thumb Code  1932  jidctint.o(.text)
    jpeg_idct_16x8                           0x08020c27   Thumb Code  1654  jidctint.o(.text)
    jpeg_idct_14x7                           0x0802129d   Thumb Code  1330  jidctint.o(.text)
    jpeg_idct_12x6                           0x080217cf   Thumb Code   994  jidctint.o(.text)
    jpeg_idct_10x5                           0x08021bb1   Thumb Code   828  jidctint.o(.text)
    jpeg_idct_8x4                            0x08021eed   Thumb Code   692  jidctint.o(.text)
    jpeg_idct_6x3                            0x080221a1   Thumb Code   450  jidctint.o(.text)
    jpeg_idct_4x2                            0x08022363   Thumb Code   278  jidctint.o(.text)
    jpeg_idct_2x1                            0x08022479   Thumb Code    90  jidctint.o(.text)
    jpeg_idct_8x16                           0x080224d3   Thumb Code  1458  jidctint.o(.text)
    jpeg_idct_7x14                           0x08022a85   Thumb Code  1244  jidctint.o(.text)
    jpeg_idct_6x12                           0x08022f61   Thumb Code   980  jidctint.o(.text)
    jpeg_idct_5x10                           0x08023335   Thumb Code   822  jidctint.o(.text)
    jpeg_idct_4x8                            0x0802366b   Thumb Code   840  jidctint.o(.text)
    jpeg_idct_3x6                            0x080239b3   Thumb Code   434  jidctint.o(.text)
    jpeg_idct_2x4                            0x08023b65   Thumb Code   264  jidctint.o(.text)
    jpeg_idct_1x2                            0x08023c6d   Thumb Code    88  jidctint.o(.text)
    jinit_upsampler                          0x08023f05   Thumb Code   342  jdsample.o(.text)
    jinit_color_deconverter                  0x08024733   Thumb Code   648  jdcolor.o(.text)
    jinit_2pass_quantizer                    0x08025713   Thumb Code   244  jquant2.o(.text)
    jinit_1pass_quantizer                    0x08026073   Thumb Code   124  jquant1.o(.text)
    jinit_merged_upsampler                   0x08026711   Thumb Code    76  jdmerge.o(.text)
    jpeg_get_small                           0x08026771   Thumb Code    14  jmemnobs.o(.text)
    jpeg_free_small                          0x0802677f   Thumb Code     2  jmemnobs.o(.text)
    jpeg_get_large                           0x08026781   Thumb Code    14  jmemnobs.o(.text)
    jpeg_free_large                          0x0802678f   Thumb Code     2  jmemnobs.o(.text)
    jpeg_mem_available                       0x08026791   Thumb Code     8  jmemnobs.o(.text)
    jpeg_open_backing_store                  0x08026799   Thumb Code    24  jmemnobs.o(.text)
    jpeg_mem_init                            0x080267b1   Thumb Code     6  jmemnobs.o(.text)
    jpeg_mem_term                            0x080267b7   Thumb Code     2  jmemnobs.o(.text)
    stdbmp_decode                            0x080267b9   Thumb Code   712  bmp.o(.text)
    minibmp_decode                           0x08026a81   Thumb Code   932  bmp.o(.text)
    bmp_encode                               0x08026e25   Thumb Code   486  bmp.o(.text)
    gif_check_head                           0x08027019   Thumb Code    88  gif.o(.text)
    gif_getrgb565                            0x08027071   Thumb Code    28  gif.o(.text)
    gif_readcolortbl                         0x0802708d   Thumb Code    64  gif.o(.text)
    gif_getinfo                              0x080270cd   Thumb Code    70  gif.o(.text)
    gif_savegctbl                            0x08027113   Thumb Code    38  gif.o(.text)
    gif_recovergctbl                         0x08027139   Thumb Code    38  gif.o(.text)
    gif_initlzw                              0x0802715f   Thumb Code   152  gif.o(.text)
    gif_getdatablock                         0x080271f7   Thumb Code    96  gif.o(.text)
    gif_readextension                        0x08027257   Thumb Code   160  gif.o(.text)
    gif_getnextcode                          0x080272f7   Thumb Code   452  gif.o(.text)
    gif_getnextbyte                          0x080274bb   Thumb Code   856  gif.o(.text)
    gif_dispimage                            0x08027813   Thumb Code   544  gif.o(.text)
    gif_clear2bkcolor                        0x08027a33   Thumb Code   496  gif.o(.text)
    gif_drawimage                            0x08027c23   Thumb Code   352  gif.o(.text)
    gif_quit                                 0x08027d83   Thumb Code     8  gif.o(.text)
    gif_decode                               0x08027d8b   Thumb Code   296  gif.o(.text)
    piclib_draw_hline                        0x08027eb9   Thumb Code    52  piclib.o(.text)
    piclib_fill_color                        0x08027eed   Thumb Code    44  piclib.o(.text)
    piclib_init                              0x08027f19   Thumb Code    62  piclib.o(.text)
    piclib_alpha_blend                       0x08027f57   Thumb Code    42  piclib.o(.text)
    ai_draw_init                             0x08027f81   Thumb Code   216  piclib.o(.text)
    is_element_ok                            0x08028059   Thumb Code    36  piclib.o(.text)
    ai_load_picfile                          0x0802807d   Thumb Code   194  piclib.o(.text)
    pic_memalloc                             0x0802813f   Thumb Code    14  piclib.o(.text)
    pic_memfree                              0x0802814d   Thumb Code    14  piclib.o(.text)
    jd_prepare                               0x08028d1d   Thumb Code   924  tjpgd.o(.text)
    jd_decomp                                0x080290b9   Thumb Code   162  tjpgd.o(.text)
    jpeg_mallocall                           0x0802915b   Thumb Code    70  tjpgd.o(.text)
    jpeg_freeall                             0x080291a1   Thumb Code    28  tjpgd.o(.text)
    jpeg_in_func                             0x080291bd   Thumb Code    48  tjpgd.o(.text)
    jpeg_out_func_fill                       0x080291ed   Thumb Code    74  tjpgd.o(.text)
    jpeg_out_func_point                      0x08029237   Thumb Code   182  tjpgd.o(.text)
    jpg_decode                               0x080292ed   Thumb Code   234  tjpgd.o(.text)
    OS_TaskStatStkChk                        0x080293ed   Thumb Code    54  os_core.o(.text)
    OS_TaskStat                              0x08029423   Thumb Code   116  os_core.o(.text)
    OS_TaskIdle                              0x080294cb   Thumb Code    34  os_core.o(.text)
    OS_MemClr                                0x08029521   Thumb Code    18  os_core.o(.text)
    OSInit                                   0x0802963f   Thumb Code    44  os_core.o(.text)
    OSIntEnter                               0x0802966b   Thumb Code    28  os_core.o(.text)
    OSIntExit                                0x080296a1   Thumb Code   112  os_core.o(.text)
    OSSchedLock                              0x08029711   Thumb Code    50  os_core.o(.text)
    OS_Sched                                 0x08029743   Thumb Code    88  os_core.o(.text)
    OSSchedUnlock                            0x0802979b   Thumb Code   238  os_core.o(.text)
    OSStart                                  0x08029889   Thumb Code    48  os_core.o(.text)
    OSStatInit                               0x080298b9   Thumb Code    62  os_core.o(.text)
    OSTimeTick                               0x080298f7   Thumb Code   210  os_core.o(.text)
    OSVersion                                0x080299c9   Thumb Code     6  os_core.o(.text)
    OS_Dummy                                 0x080299cf   Thumb Code     2  os_core.o(.text)
    OS_EventTaskRemove                       0x080299d1   Thumb Code    42  os_core.o(.text)
    OS_EventTaskRdy                          0x080299fb   Thumb Code   114  os_core.o(.text)
    OS_EventTaskWait                         0x08029a6d   Thumb Code   112  os_core.o(.text)
    OS_EventWaitListInit                     0x08029add   Thumb Code    28  os_core.o(.text)
    OS_MemCopy                               0x08029af9   Thumb Code    20  os_core.o(.text)
    OS_StrLen                                0x08029b0d   Thumb Code    20  os_core.o(.text)
    OS_TCBInit                               0x08029b21   Thumb Code   280  os_core.o(.text)
    OSFlagAccept                             0x08029c7d   Thumb Code   252  os_flag.o(.text)
    OSFlagCreate                             0x08029d79   Thumb Code    86  os_flag.o(.text)
    OS_FlagUnlink                            0x08029dcf   Thumb Code    36  os_flag.o(.text)
    OSFlagDel                                0x08029e45   Thumb Code   214  os_flag.o(.text)
    OSFlagNameGet                            0x08029f1b   Thumb Code    80  os_flag.o(.text)
    OSFlagNameSet                            0x08029f6b   Thumb Code    66  os_flag.o(.text)
    OSFlagPend                               0x0802a045   Thumb Code   614  os_flag.o(.text)
    OSFlagPendGetFlagsRdy                    0x0802a2ab   Thumb Code    26  os_flag.o(.text)
    OSFlagPost                               0x0802a2c5   Thumb Code   312  os_flag.o(.text)
    OSFlagQuery                              0x0802a3fd   Thumb Code    48  os_flag.o(.text)
    OS_FlagInit                              0x0802a42d   Thumb Code    78  os_flag.o(.text)
    OSMboxAccept                             0x0802a489   Thumb Code    38  os_mbox.o(.text)
    OSMboxCreate                             0x0802a4af   Thumb Code    68  os_mbox.o(.text)
    OSMboxDel                                0x0802a4f3   Thumb Code   200  os_mbox.o(.text)
    OSMboxPend                               0x0802a5bb   Thumb Code   246  os_mbox.o(.text)
    OSMboxPendAbort                          0x0802a6b1   Thumb Code   128  os_mbox.o(.text)
    OSMboxPost                               0x0802a731   Thumb Code    80  os_mbox.o(.text)
    OSMboxPostOpt                            0x0802a781   Thumb Code   120  os_mbox.o(.text)
    OSMboxQuery                              0x0802a7f9   Thumb Code    76  os_mbox.o(.text)
    OSQAccept                                0x0802a855   Thumb Code    88  os_q.o(.text)
    OSQCreate                                0x0802a8ad   Thumb Code   140  os_q.o(.text)
    OSQDel                                   0x0802a939   Thumb Code   236  os_q.o(.text)
    OSQFlush                                 0x0802aa25   Thumb Code    36  os_q.o(.text)
    OSQPend                                  0x0802aa49   Thumb Code   272  os_q.o(.text)
    OSQPendAbort                             0x0802ab59   Thumb Code   128  os_q.o(.text)
    OSQPost                                  0x0802abd9   Thumb Code   114  os_q.o(.text)
    OSQPostFront                             0x0802ac4b   Thumb Code   136  os_q.o(.text)
    OSQPostOpt                               0x0802acd3   Thumb Code   182  os_q.o(.text)
    OSQQuery                                 0x0802ad89   Thumb Code    98  os_q.o(.text)
    OS_QInit                                 0x0802adeb   Thumb Code    72  os_q.o(.text)
    OSTaskChangePrio                         0x0802ae3d   Thumb Code   308  os_task.o(.text)
    OSTaskCreate                             0x0802af71   Thumb Code   148  os_task.o(.text)
    OS_TaskStkClr                            0x0802b005   Thumb Code    26  os_task.o(.text)
    OSTaskCreateExt                          0x0802b01f   Thumb Code   170  os_task.o(.text)
    OSTaskDel                                0x0802b0c9   Thumb Code   294  os_task.o(.text)
    OSTaskDelReq                             0x0802b1ef   Thumb Code   144  os_task.o(.text)
    OSTaskNameGet                            0x0802b27f   Thumb Code   114  os_task.o(.text)
    OSTaskNameSet                            0x0802b2f1   Thumb Code    98  os_task.o(.text)
    OSTaskResume                             0x0802b353   Thumb Code   154  os_task.o(.text)
    OSTaskStkChk                             0x0802b3ed   Thumb Code   132  os_task.o(.text)
    OSTaskSuspend                            0x0802b471   Thumb Code   152  os_task.o(.text)
    OSTaskQuery                              0x0802b509   Thumb Code    82  os_task.o(.text)
    OSTaskRegGet                             0x0802b55b   Thumb Code    60  os_task.o(.text)
    OSTaskRegSet                             0x0802b597   Thumb Code    62  os_task.o(.text)
    OS_TaskReturn                            0x0802b5d5   Thumb Code    18  os_task.o(.text)
    OSTimeDly                                0x0802b601   Thumb Code   100  os_time.o(.text)
    OSTimeDlyHMSM                            0x0802b665   Thumb Code    86  os_time.o(.text)
    OSTimeDlyResume                          0x0802b6bb   Thumb Code   168  os_time.o(.text)
    OSTimeGet                                0x0802b763   Thumb Code    24  os_time.o(.text)
    OSTimeSet                                0x0802b77b   Thumb Code    24  os_time.o(.text)
    OS_CPU_SR_Save                           0x0802b7b1   Thumb Code     0  os_cpu_a.o(.text)
    OS_CPU_SR_Restore                        0x0802b7b9   Thumb Code     0  os_cpu_a.o(.text)
    OSStartHighRdy                           0x0802b7bf   Thumb Code     0  os_cpu_a.o(.text)
    OSCtxSw                                  0x0802b7e3   Thumb Code     0  os_cpu_a.o(.text)
    OSIntCtxSw                               0x0802b7f1   Thumb Code     0  os_cpu_a.o(.text)
    PendSV_Handler                           0x0802b801   Thumb Code     0  os_cpu_a.o(.text)
    OSInitHookBegin                          0x0802b879   Thumb Code     2  os_cpu_c.o(.text)
    OSInitHookEnd                            0x0802b87b   Thumb Code     2  os_cpu_c.o(.text)
    OSTaskCreateHook                         0x0802b87d   Thumb Code     2  os_cpu_c.o(.text)
    OSTaskDelHook                            0x0802b87f   Thumb Code     2  os_cpu_c.o(.text)
    OSTaskIdleHook                           0x0802b881   Thumb Code     2  os_cpu_c.o(.text)
    OSTaskStatHook                           0x0802b883   Thumb Code     2  os_cpu_c.o(.text)
    OSTaskStkInit                            0x0802b885   Thumb Code   426  os_cpu_c.o(.text)
    OSTaskSwHook                             0x0802ba2f   Thumb Code     2  os_cpu_c.o(.text)
    OSTCBInitHook                            0x0802ba31   Thumb Code     2  os_cpu_c.o(.text)
    OSTimeTickHook                           0x0802ba33   Thumb Code     2  os_cpu_c.o(.text)
    OSTaskReturnHook                         0x0802ba35   Thumb Code     2  os_cpu_c.o(.text)
    btn_read_backcolor                       0x0802ba3d   Thumb Code    72  button.o(.text)
    btn_recover_backcolor                    0x0802ba85   Thumb Code    72  button.o(.text)
    btn_delete                               0x0802bacd   Thumb Code    42  button.o(.text)
    btn_creat                                0x0802baf7   Thumb Code   280  button.o(.text)
    btn_release_hook                         0x0802bc0f   Thumb Code     2  button.o(.text)
    btn_press_hook                           0x0802bc11   Thumb Code     2  button.o(.text)
    btn_draw_textbbtn                        0x0802bc13   Thumb Code   138  button.o(.text)
    btn_draw_textabtn                        0x0802bc9d   Thumb Code   110  button.o(.text)
    btn_draw_arcbtn                          0x0802bd0b   Thumb Code   298  button.o(.text)
    btn_draw_picbtn                          0x0802be35   Thumb Code   168  button.o(.text)
    btn_draw_stdbtn                          0x0802bedd   Thumb Code   436  button.o(.text)
    btn_draw                                 0x0802c091   Thumb Code   114  button.o(.text)
    btn_check                                0x0802c103   Thumb Code   266  button.o(.text)
    btn_test                                 0x0802c20d   Thumb Code    86  button.o(.text)
    _gui_draw_point                          0x0802c265   Thumb Code    32  gui.o(.text)
    gui_init                                 0x0802c285   Thumb Code   136  gui.o(.text)
    gui_get_key                              0x0802c30d   Thumb Code   112  gui.o(.text)
    gui_color_chg                            0x0802c37d   Thumb Code    26  gui.o(.text)
    gui_rgb332torgb565                       0x0802c397   Thumb Code    32  gui.o(.text)
    gui_pow                                  0x0802c3b7   Thumb Code    42  gui.o(.text)
    gui_disabs                               0x0802c3e1   Thumb Code    14  gui.o(.text)
    gui_alpha_blend565                       0x0802c3ef   Thumb Code    42  gui.o(.text)
    gui_alphablend_area                      0x0802c419   Thumb Code    92  gui.o(.text)
    gui_draw_bigpoint                        0x0802c475   Thumb Code    84  gui.o(.text)
    gui_draw_line                            0x0802c4c9   Thumb Code   176  gui.o(.text)
    gui_draw_hline                           0x0802c579   Thumb Code    60  gui.o(.text)
    gui_fill_circle                          0x0802c5b5   Thumb Code   216  gui.o(.text)
    gui_draw_bline                           0x0802c68d   Thumb Code   230  gui.o(.text)
    gui_draw_bline1                          0x0802c773   Thumb Code   358  gui.o(.text)
    gui_draw_vline                           0x0802c8d9   Thumb Code    60  gui.o(.text)
    gui_fill_colorblock                      0x0802c915   Thumb Code    98  gui.o(.text)
    gui_smooth_color                         0x0802c977   Thumb Code   140  gui.o(.text)
    gui_memin_free                           0x0802ca03   Thumb Code    16  gui.o(.text)
    gui_memin_malloc                         0x0802ca13   Thumb Code    14  gui.o(.text)
    gui_draw_smooth_rectangle                0x0802ca21   Thumb Code   108  gui.o(.text)
    gui_draw_rectangle                       0x0802ca8d   Thumb Code    82  gui.o(.text)
    gui_draw_expoint                         0x0802cadf   Thumb Code    62  gui.o(.text)
    gui_draw_circle8                         0x0802cb1d   Thumb Code   232  gui.o(.text)
    gui_draw_arc                             0x0802cc05   Thumb Code   112  gui.o(.text)
    gui_fill_rectangle                       0x0802cc75   Thumb Code    56  gui.o(.text)
    gui_draw_arcrectangle                    0x0802ccad   Thumb Code   674  gui.o(.text)
    gui_draw_icos                            0x0802cf4f   Thumb Code   150  gui.o(.text)
    gui_draw_icosalpha                       0x0802cfe5   Thumb Code   172  gui.o(.text)
    gui_draw_ellipse                         0x0802d091   Thumb Code   334  gui.o(.text)
    gui_fill_ellipse                         0x0802d1df   Thumb Code   162  gui.o(.text)
    gui_show_ptfont                          0x0802d281   Thumb Code   298  gui.o(.text)
    gui_show_ptchar                          0x0802d3ab   Thumb Code   450  gui.o(.text)
    gui_show_ptstr                           0x0802d56d   Thumb Code   300  gui.o(.text)
    gui_show_strmid                          0x0802d699   Thumb Code   160  gui.o(.text)
    gui_show_num                             0x0802d739   Thumb Code   304  gui.o(.text)
    gui_num2str                              0x0802d869   Thumb Code   112  gui.o(.text)
    gui_show_ptstrwhiterim                   0x0802d8d9   Thumb Code    76  gui.o(.text)
    gui_path_name                            0x0802d925   Thumb Code    42  gui.o(.text)
    gui_get_stringline                       0x0802d94f   Thumb Code   132  gui.o(.text)
    gui_show_string                          0x0802d9d3   Thumb Code   258  gui.o(.text)
    gui_string_forwardgbk_count              0x0802dad5   Thumb Code    28  gui.o(.text)
    gui_memset                               0x0802daf1   Thumb Code    18  gui.o(.text)
    gui_memex_malloc                         0x0802db03   Thumb Code    14  gui.o(.text)
    gui_memex_free                           0x0802db11   Thumb Code    16  gui.o(.text)
    gui_memin_realloc                        0x0802db21   Thumb Code    18  gui.o(.text)
    window_read_backcolor                    0x0802db39   Thumb Code    72  window.o(.text)
    window_recover_backcolor                 0x0802db81   Thumb Code    72  window.o(.text)
    window_delete                            0x0802dbc9   Thumb Code    42  window.o(.text)
    window_creat                             0x0802dbf3   Thumb Code   316  window.o(.text)
    window_draw                              0x0802dd2f   Thumb Code   566  window.o(.text)
    window_msg_box                           0x0802df65   Thumb Code   734  window.o(.text)
    win_test                                 0x0802e243   Thumb Code    74  window.o(.text)
    __aeabi_ldivmod                          0x0802e2a5   Thumb Code    98  ldiv.o(.text)
    __aeabi_memcpy                           0x0802e307   Thumb Code    36  memcpya.o(.text)
    __aeabi_memcpy4                          0x0802e307   Thumb Code     0  memcpya.o(.text)
    __aeabi_memcpy8                          0x0802e307   Thumb Code     0  memcpya.o(.text)
    __aeabi_memset                           0x0802e32b   Thumb Code    14  memseta.o(.text)
    __aeabi_memset4                          0x0802e32b   Thumb Code     0  memseta.o(.text)
    __aeabi_memset8                          0x0802e32b   Thumb Code     0  memseta.o(.text)
    __aeabi_memclr                           0x0802e339   Thumb Code     4  memseta.o(.text)
    __aeabi_memclr4                          0x0802e339   Thumb Code     0  memseta.o(.text)
    __aeabi_memclr8                          0x0802e339   Thumb Code     0  memseta.o(.text)
    _memset$wrapper                          0x0802e33d   Thumb Code    18  memseta.o(.text)
    strcat                                   0x0802e34f   Thumb Code    24  strcat.o(.text)
    strncpy                                  0x0802e367   Thumb Code    24  strncpy.o(.text)
    strlen                                   0x0802e37f   Thumb Code    14  strlen.o(.text)
    strcmp                                   0x0802e38d   Thumb Code    28  strcmp.o(.text)
    strcpy                                   0x0802e3a9   Thumb Code    18  strcpy.o(.text)
    __0sscanf                                0x0802e3bd   Thumb Code    48  __0sscanf.o(.text)
    _scanf_int                               0x0802e3f5   Thumb Code   332  _scanf_int.o(.text)
    _scanf_string                            0x0802e541   Thumb Code   224  _scanf_str.o(.text)
    __aeabi_dadd                             0x0802e621   Thumb Code   322  dadd.o(.text)
    __aeabi_dsub                             0x0802e763   Thumb Code     6  dadd.o(.text)
    __aeabi_drsub                            0x0802e769   Thumb Code     6  dadd.o(.text)
    __aeabi_dmul                             0x0802e76f   Thumb Code   228  dmul.o(.text)
    __aeabi_ddiv                             0x0802e853   Thumb Code   222  ddiv.o(.text)
    __aeabi_i2d                              0x0802e931   Thumb Code    34  dflti.o(.text)
    __aeabi_ui2d                             0x0802e953   Thumb Code    26  dfltui.o(.text)
    __aeabi_d2uiz                            0x0802e96d   Thumb Code    50  dfixui.o(.text)
    __aeabi_f2d                              0x0802e99f   Thumb Code    38  f2d.o(.text)
    __aeabi_cdcmpeq                          0x0802e9c5   Thumb Code     0  cdcmple.o(.text)
    __aeabi_cdcmple                          0x0802e9c5   Thumb Code    48  cdcmple.o(.text)
    __aeabi_cdrcmple                         0x0802e9f5   Thumb Code    48  cdrcmple.o(.text)
    __aeabi_d2f                              0x0802ea25   Thumb Code    56  d2f.o(.text)
    setjmp                                   0x0802ea5d   Thumb Code    26  setjmp.o(.text)
    longjmp                                  0x0802ea77   Thumb Code    36  setjmp.o(.text)
    __aeabi_uldivmod                         0x0802ea9b   Thumb Code    98  uldiv.o(.text)
    __aeabi_llsl                             0x0802eafd   Thumb Code    30  llshl.o(.text)
    _ll_shift_l                              0x0802eafd   Thumb Code     0  llshl.o(.text)
    __aeabi_llsr                             0x0802eb1b   Thumb Code    32  llushr.o(.text)
    _ll_ushift_r                             0x0802eb1b   Thumb Code     0  llushr.o(.text)
    __aeabi_lasr                             0x0802eb3b   Thumb Code    36  llsshr.o(.text)
    _ll_sshift_r                             0x0802eb3b   Thumb Code     0  llsshr.o(.text)
    _chval                                   0x0802eb5f   Thumb Code    28  _chval.o(.text)
    __vfscanf_char                           0x0802eb89   Thumb Code    20  scanf_char.o(.text)
    _sgetc                                   0x0802eba5   Thumb Code    30  _sgetc.o(.text)
    _sbackspace                              0x0802ebc3   Thumb Code    34  _sgetc.o(.text)
    __I$use$fp                               0x0802ebe5   Thumb Code     0  iusefp.o(.text)
    _float_round                             0x0802ebe5   Thumb Code    18  fepilogue.o(.text)
    _float_epilogue                          0x0802ebf7   Thumb Code    92  fepilogue.o(.text)
    _double_round                            0x0802ec53   Thumb Code    30  depilogue.o(.text)
    _double_epilogue                         0x0802ec71   Thumb Code   156  depilogue.o(.text)
    _dsqrt                                   0x0802ed0d   Thumb Code   162  dsqrt.o(.text)
    __scatterload                            0x0802edb1   Thumb Code    28  init.o(.text)
    __scatterload_rt2                        0x0802edb1   Thumb Code     0  init.o(.text)
    isspace                                  0x0802edd5   Thumb Code    10  isspace_c.o(.text)
    __vfscanf                                0x0802ede1   Thumb Code   808  _scanf.o(.text)
    __ctype_lookup                           0x0802f10d   Thumb Code    34  ctype_c.o(.text)
    __decompress                             0x0802f135   Thumb Code     0  __dczerorl2.o(.text)
    __decompress1                            0x0802f135   Thumb Code    86  __dczerorl2.o(.text)
    __0printf$8                              0x0802f18d   Thumb Code    22  printf8.o(i.__0printf$8)
    __1printf$8                              0x0802f18d   Thumb Code     0  printf8.o(i.__0printf$8)
    __2printf                                0x0802f18d   Thumb Code     0  printf8.o(i.__0printf$8)
    __0sprintf$8                             0x0802f1ad   Thumb Code    34  printf8.o(i.__0sprintf$8)
    __1sprintf$8                             0x0802f1ad   Thumb Code     0  printf8.o(i.__0sprintf$8)
    __2sprintf                               0x0802f1ad   Thumb Code     0  printf8.o(i.__0sprintf$8)
    __hardfp_sqrt                            0x0802f1d5   Thumb Code   122  sqrt.o(i.__hardfp_sqrt)
    __scatterload_copy                       0x0802f24f   Thumb Code    14  handlers.o(i.__scatterload_copy)
    __scatterload_null                       0x0802f25d   Thumb Code     2  handlers.o(i.__scatterload_null)
    __scatterload_zeroinit                   0x0802f25f   Thumb Code    14  handlers.o(i.__scatterload_zeroinit)
    __set_errno                              0x0802f26d   Thumb Code     6  errno.o(i.__set_errno)
    asc2_1206                                0x0802f6e4   Data        1140  lcd.o(.constdata)
    asc2_1608                                0x0802fb58   Data        1520  lcd.o(.constdata)
    asc2_2412                                0x08030148   Data        3420  lcd.o(.constdata)
    I2S_PSC_TBL                              0x08030ea4   Data         110  i2s.o(.constdata)
    FT5206_TPX_TBL                           0x08030f12   Data          10  ft5206.o(.constdata)
    GT9147_CFG_TBL                           0x08030f1c   Data         184  gt9147.o(.constdata)
    GT9147_TPX_TBL                           0x08030fd4   Data          10  gt9147.o(.constdata)
    OTT_TPX_TBL                              0x08030fde   Data          10  ott2001a.o(.constdata)
    TP_REMIND_MSG_TBL                        0x08030fe8   Data           4  touch.o(.constdata)
    FSMC_DefaultTimingStruct                 0x08030fec   Data          28  stm32f4xx_fsmc.o(.constdata)
    memtblsize                               0x08031008   Data          12  malloc.o(.constdata)
    memblksize                               0x08031014   Data          12  malloc.o(.constdata)
    memsize                                  0x08031020   Data          12  malloc.o(.constdata)
    FILE_TYPE_TBL                            0x08031068   Data         112  exfuns.o(.constdata)
    GBK24_PATH                               0x08031498   Data           4  fontupd.o(.constdata)
    GBK16_PATH                               0x0803149c   Data           4  fontupd.o(.constdata)
    GBK12_PATH                               0x080314a0   Data           4  fontupd.o(.constdata)
    UNIGBK_PATH                              0x080314a4   Data           4  fontupd.o(.constdata)
    AVI_VIDS_FLAG_TBL                        0x080314a8   Data           8  avi.o(.constdata)
    AVI_AUDS_FLAG_TBL                        0x080314b0   Data           8  avi.o(.constdata)
    jpeg_aritab                              0x080314b8   Data         456  jaricom.o(.constdata)
    jpeg_natural_order                       0x08031680   Data         320  jutils.o(.constdata)
    jpeg_natural_order7                      0x080317c0   Data         260  jutils.o(.constdata)
    jpeg_natural_order6                      0x080318c4   Data         208  jutils.o(.constdata)
    jpeg_natural_order5                      0x08031994   Data         164  jutils.o(.constdata)
    jpeg_natural_order4                      0x08031a38   Data         128  jutils.o(.constdata)
    jpeg_natural_order3                      0x08031ab8   Data         100  jutils.o(.constdata)
    jpeg_natural_order2                      0x08031b1c   Data          80  jutils.o(.constdata)
    jpeg_std_message_table                   0x08031b6c   Data         512  jerror.o(.constdata)
    _aMaskTbl                                0x080322b4   Data          32  gif.o(.constdata)
    _aInterlaceOffset                        0x080322d4   Data           4  gif.o(.constdata)
    _aInterlaceYPos                          0x080322d8   Data           4  gif.o(.constdata)
    OSUnMapTbl                               0x0803279c   Data         256  os_core.o(.constdata)
    icostbl_16                               0x0803289c   Data        2560  gui.o(.constdata)
    icostbl_20                               0x0803329c   Data        4000  gui.o(.constdata)
    icostbl_28                               0x0803423c   Data        7840  gui.o(.constdata)
    pathico_16                               0x080360dc   Data        2048  gui.o(.constdata)
    pathico_20                               0x080368dc   Data        3200  gui.o(.constdata)
    pathico_28                               0x0803755c   Data        6272  gui.o(.constdata)
    GUI_OK_CAPTION_TBL                       0x08038ddc   Data          12  gui.o(.constdata)
    GUI_OPTION_CAPTION_TBL                   0x08038de8   Data          12  gui.o(.constdata)
    GUI_BACK_CAPTION_TBL                     0x08038df4   Data          12  gui.o(.constdata)
    GUI_CANCEL_CAPTION_TBL                   0x08038e00   Data          12  gui.o(.constdata)
    GUI_QUIT_CAPTION_TBL                     0x08038e0c   Data          12  gui.o(.constdata)
    __ctype_categories                       0x08038e18   Data          64  ctype_c.o(.constdata)
    Region$$Table$$Base                      0x0803a528   Number         0  anon$$obj.o(Region$$Table)
    Region$$Table$$Limit                     0x0803a548   Number         0  anon$$obj.o(Region$$Table)
    mem3base                                 0x10000000   Data       61440  malloc.o(.ARM.__AT_0x10000000)
    mem3mapbase                              0x1000f000   Data        3840  malloc.o(.ARM.__AT_0x1000F000)
    SystemCoreClock                          0x20000000   Data           4  system_stm32f4xx.o(.data)
    AHBPrescTable                            0x20000004   Data          16  system_stm32f4xx.o(.data)
    msg_key                                  0x20000014   Data           4  main.o(.data)
    POINT_COLOR                              0x20000018   Data           2  lcd.o(.data)
    BACK_COLOR                               0x2000001a   Data           2  lcd.o(.data)
    W25QXX_TYPE                              0x2000001e   Data           2  w25qxx.o(.data)
    TransferError                            0x2000002a   Data           1  sdio_sdcard.o(.data)
    TransferEnd                              0x2000002b   Data           1  sdio_sdcard.o(.data)
    tempbuff                                 0x2000002c   Data           4  sdio_sdcard.o(.data)
    i2s_tx_callback                          0x20000030   Data           4  i2s.o(.data)
    i2s_rx_callback                          0x20000034   Data           4  i2s.o(.data)
    frame                                    0x200000ac   Data           2  timer.o(.data)
    frameup                                  0x200000ae   Data           1  timer.o(.data)
    tp_dev                                   0x200000b4   Data          52  touch.o(.data)
    CMD_RDX                                  0x200000e8   Data           1  touch.o(.data)
    CMD_RDY                                  0x200000e9   Data           1  touch.o(.data)
    __stdout                                 0x200000f0   Data           4  usart.o(.data)
    USART_RX_STA                             0x200000f4   Data           2  usart.o(.data)
    mallco_dev                               0x20000108   Data          36  malloc.o(.data)
    sys_cmd_tab                              0x2000012c   Data          28  usmart.o(.data)
    usmart_nametab                           0x20000148   Data         120  usmart_config.o(.data)
    usmart_dev                               0x200001c0   Data         244  usmart_config.o(.data)
    FLASH_SECTOR_COUNT                       0x200002b4   Data           2  diskio.o(.data)
    file                                     0x200002b8   Data           4  exfuns.o(.data)
    ftemp                                    0x200002bc   Data           4  exfuns.o(.data)
    br                                       0x200002c0   Data           4  exfuns.o(.data)
    bw                                       0x200002c4   Data           4  exfuns.o(.data)
    fatbuf                                   0x200002c8   Data           4  exfuns.o(.data)
    i2splaybuf                               0x200002cc   Data           1  videoplayer.o(.data)
    cinfo                                    0x200002d4   Data           4  mjpeg.o(.data)
    jerr                                     0x200002d8   Data           4  mjpeg.o(.data)
    jpegbuf                                  0x200002dc   Data           4  mjpeg.o(.data)
    jbufsize                                 0x200002e0   Data           4  mjpeg.o(.data)
    imgoffx                                  0x200002e4   Data           2  mjpeg.o(.data)
    imgoffy                                  0x200002e6   Data           2  mjpeg.o(.data)
    jmembuf                                  0x200002e8   Data           4  mjpeg.o(.data)
    jmempos                                  0x200002ec   Data           4  mjpeg.o(.data)
    gifdecoding                              0x200002f0   Data           1  gif.o(.data)
    f_jpeg                                   0x200002f4   Data           4  tjpgd.o(.data)
    jpeg_dev                                 0x200002f8   Data           4  tjpgd.o(.data)
    jpg_buffer                               0x200002fc   Data           4  tjpgd.o(.data)
    OSCtxSwCtr                               0x20000300   Data           4  os_core.o(.data)
    OSEventFreeList                          0x20000304   Data           4  os_core.o(.data)
    OSFlagFreeList                           0x20000308   Data           4  os_core.o(.data)
    OSCPUUsage                               0x2000030c   Data           1  os_core.o(.data)
    OSIdleCtrMax                             0x20000310   Data           4  os_core.o(.data)
    OSIdleCtrRun                             0x20000314   Data           4  os_core.o(.data)
    OSStatRdy                                0x20000318   Data           1  os_core.o(.data)
    OSIntNesting                             0x20000319   Data           1  os_core.o(.data)
    OSLockNesting                            0x2000031a   Data           1  os_core.o(.data)
    OSPrioCur                                0x2000031b   Data           1  os_core.o(.data)
    OSPrioHighRdy                            0x2000031c   Data           1  os_core.o(.data)
    OSRdyGrp                                 0x2000031d   Data           1  os_core.o(.data)
    OSRdyTbl                                 0x2000031e   Data           8  os_core.o(.data)
    OSRunning                                0x20000326   Data           1  os_core.o(.data)
    OSTaskCtr                                0x20000327   Data           1  os_core.o(.data)
    OSIdleCtr                                0x20000328   Data           4  os_core.o(.data)
    OSTCBCur                                 0x2000032c   Data           4  os_core.o(.data)
    OSTCBFreeList                            0x20000330   Data           4  os_core.o(.data)
    OSTCBHighRdy                             0x20000334   Data           4  os_core.o(.data)
    OSTCBList                                0x20000338   Data           4  os_core.o(.data)
    OSTickStepState                          0x2000033c   Data           1  os_core.o(.data)
    OSQFreeList                              0x20000340   Data           4  os_core.o(.data)
    OSTime                                   0x20000344   Data           4  os_core.o(.data)
    asc2_s6030                               0x20000348   Data           4  gui.o(.data)
    asc2_5427                                0x2000034c   Data           4  gui.o(.data)
    asc2_3618                                0x20000350   Data           4  gui.o(.data)
    asc2_2814                                0x20000354   Data           4  gui.o(.data)
    in_obj                                   0x20000358   Data          14  gui.o(.data)
    system_task_return                       0x20000366   Data           1  window.o(.data)
    START_TASK_STK                           0x2000036c   Data         256  main.o(.bss)
    MAIN_TASK_STK                            0x2000046c   Data         512  main.o(.bss)
    VIDEO_TASK_STK                           0x2000066c   Data        2048  main.o(.bss)
    FILE_TASK_STK                            0x20000e6c   Data         256  main.o(.bss)
    lcddev                                   0x20000f6c   Data          14  lcd.o(.bss)
    W25QXX_BUFFER                            0x20000f7a   Data        4096  w25qxx.o(.bss)
    SDIO_InitStructure                       0x20001f80   Data          24  sdio_sdcard.o(.bss)
    SDIO_CmdInitStructure                    0x20001f98   Data          20  sdio_sdcard.o(.bss)
    SDIO_DataInitStructure                   0x20001fac   Data          24  sdio_sdcard.o(.bss)
    SDCardInfo                               0x20001fe8   Data          88  sdio_sdcard.o(.bss)
    SDIO_DATA_BUFFER                         0x20002040   Data         512  sdio_sdcard.o(.bss)
    USART_RX_BUF                             0x20002240   Data         200  usart.o(.bss)
    mem1base                                 0x20002320   Data       102400  malloc.o(.bss)
    mem1mapbase                              0x2001b320   Data        6400  malloc.o(.bss)
    fs                                       0x2001cc2c   Data          12  exfuns.o(.bss)
    fileinfo                                 0x2001cc38   Data          32  exfuns.o(.bss)
    dir                                      0x2001cc58   Data          36  exfuns.o(.bss)
    ftinfo                                   0x2001cc7c   Data          33  fontupd.o(.bss)
    i2sbuf                                   0x2001cca0   Data          16  videoplayer.o(.bss)
    avix                                     0x2001ccb0   Data          40  avi.o(.bss)
    picinfo                                  0x2001ccd8   Data          40  piclib.o(.bss)
    pic_phy                                  0x2001cd00   Data          20  piclib.o(.bss)
    OSEventTbl                               0x2001cd14   Data         200  os_core.o(.bss)
    OSFlagTbl                                0x2001cddc   Data          80  os_core.o(.bss)
    OSTaskStatStk                            0x2001ce2c   Data         512  os_core.o(.bss)
    OSTaskIdleStk                            0x2001d02c   Data         512  os_core.o(.bss)
    OSTCBPrioTbl                             0x2001d22c   Data         256  os_core.o(.bss)
    OSTCBTbl                                 0x2001d32c   Data        1008  os_core.o(.bss)
    OSQTbl                                   0x2001d71c   Data         120  os_core.o(.bss)
    gui_phy                                  0x2001d794   Data          29  gui.o(.bss)
    __initial_sp                             0x2001e1b8   Data           0  startup_stm32f40_41xxx.o(STACK)
    mem2base                                 0x68000000   Data       983040  malloc.o(.ARM.__AT_0x68000000)
    mem2mapbase                              0x680f0000   Data       61440  malloc.o(.ARM.__AT_0x680F0000)



==============================================================================

Memory Map of the image

  Image Entry point : 0x08000189

  Load Region LR_IROM1 (Base: 0x08000000, Size: 0x0003a8b4, Max: 0x00100000, ABSOLUTE, COMPRESSED[0x0003a660])

    Execution Region ER_IROM1 (Base: 0x08000000, Size: 0x0003a548, Max: 0x00100000, ABSOLUTE)

    Base Addr    Size         Type   Attr      Idx    E Section Name        Object

    0x08000000   0x00000188   Data   RO          884    RESET               startup_stm32f40_41xxx.o
    0x08000188   0x00000000   Code   RO         2549  * .ARM.Collect$$$$00000000  mc_w.l(entry.o)
    0x08000188   0x00000004   Code   RO         2867    .ARM.Collect$$$$00000001  mc_w.l(entry2.o)
    0x0800018c   0x00000004   Code   RO         2870    .ARM.Collect$$$$00000004  mc_w.l(entry5.o)
    0x08000190   0x00000000   Code   RO         2872    .ARM.Collect$$$$00000008  mc_w.l(entry7b.o)
    0x08000190   0x00000000   Code   RO         2874    .ARM.Collect$$$$0000000A  mc_w.l(entry8b.o)
    0x08000190   0x00000008   Code   RO         2875    .ARM.Collect$$$$0000000B  mc_w.l(entry9a.o)
    0x08000198   0x00000000   Code   RO         2877    .ARM.Collect$$$$0000000D  mc_w.l(entry10a.o)
    0x08000198   0x00000000   Code   RO         2879    .ARM.Collect$$$$0000000F  mc_w.l(entry11a.o)
    0x08000198   0x00000004   Code   RO         2868    .ARM.Collect$$$$00002712  mc_w.l(entry2.o)
    0x0800019c   0x00000010   Code   RO          835    .emb_text           sys.o
    0x080001ac   0x00000016   Code   RO            3    .text               stm32f4xx_it.o
    0x080001c2   0x00000002   PAD
    0x080001c4   0x00000210   Code   RO          133    .text               system_stm32f4xx.o
    0x080003d4   0x0000020c   Code   RO          159    .text               main.o
    0x080005e0   0x00005198   Code   RO          395    .text               lcd.o
    0x08005778   0x00000104   Code   RO          443    .text               key.o
    0x0800587c   0x00000118   Code   RO          464    .text               spi.o
    0x08005994   0x00000384   Code   RO          487    .text               w25qxx.o
    0x08005d18   0x00001d60   Code   RO          518    .text               sdio_sdcard.o
    0x08007a78   0x0000025c   Code   RO          552    .text               myiic.o
    0x08007cd4   0x0000017a   Code   RO          575    .text               24cxx.o
    0x08007e4e   0x00000002   PAD
    0x08007e50   0x00000338   Code   RO          598    .text               i2s.o
    0x08008188   0x00000424   Code   RO          625    .text               wm8978.o
    0x080085ac   0x00000110   Code   RO          647    .text               timer.o
    0x080086bc   0x00000254   Code   RO          670    .text               ctiic.o
    0x08008910   0x0000032c   Code   RO          693    .text               ft5206.o
    0x08008c3c   0x00000448   Code   RO          717    .text               gt9147.o
    0x08009084   0x00000388   Code   RO          741    .text               ott2001a.o
    0x0800940c   0x000010b0   Code   RO          765    .text               touch.o
    0x0800a4bc   0x0000031c   Code   RO          793    .text               sram.o
    0x0800a7d8   0x00000128   Code   RO          813    .text               delay.o
    0x0800a900   0x00000150   Code   RO          853    .text               usart.o
    0x0800aa50   0x00000024   Code   RO          885    .text               startup_stm32f40_41xxx.o
    0x0800aa74   0x000000e0   Code   RO          891    .text               misc.o
    0x0800ab54   0x00000294   Code   RO          911    .text               stm32f4xx_gpio.o
    0x0800ade8   0x000005c8   Code   RO          931    .text               stm32f4xx_fsmc.o
    0x0800b3b0   0x0000065c   Code   RO          954    .text               stm32f4xx_rcc.o
    0x0800ba0c   0x00000454   Code   RO          976    .text               stm32f4xx_usart.o
    0x0800be60   0x00000ca2   Code   RO          996    .text               stm32f4xx_tim.o
    0x0800cb02   0x00000002   PAD
    0x0800cb04   0x00000480   Code   RO         1036    .text               stm32f4xx_spi.o
    0x0800cf84   0x000001dc   Code   RO         1056    .text               stm32f4xx_sdio.o
    0x0800d160   0x000003a8   Code   RO         1076    .text               stm32f4xx_dma.o
    0x0800d508   0x00000260   Code   RO         1096    .text               malloc.o
    0x0800d768   0x00000c34   Code   RO         1128    .text               usmart.o
    0x0800e39c   0x00000528   Code   RO         1180    .text               usmart_str.o
    0x0800e8c4   0x00000200   Code   RO         1200    .text               diskio.o
    0x0800eac4   0x0000329a   Code   RO         1224    .text               ff.o
    0x08011d5e   0x00000002   PAD
    0x08011d60   0x00000198   Code   RO         1245    .text               exfuns.o
    0x08011ef8   0x000009cc   Code   RO         1277    .text               fattester.o
    0x080128c4   0x000000cc   Code   RO         1297    .text               mycc936.o
    0x08012990   0x000005e0   Code   RO         1318    .text               fontupd.o
    0x08012f70   0x000002d4   Code   RO         1347    .text               text.o
    0x08013244   0x00000d90   Code   RO         1433    .text               videoplayer.o
    0x08013fd4   0x00000478   Code   RO         1493    .text               avi.o
    0x0801444c   0x000002f8   Code   RO         1539    .text               mjpeg.o
    0x08014744   0x00000088   Code   RO         1599    .text               jcomapi.o
    0x080147cc   0x00000074   Code   RO         1618    .text               jutils.o
    0x08014840   0x00000168   Code   RO         1640    .text               jerror.o
    0x080149a8   0x00000ab4   Code   RO         1671    .text               jmemmgr.o
    0x0801545c   0x00000468   Code   RO         1695    .text               jdapimin.o
    0x080158c4   0x000002ea   Code   RO         1707    .text               jdapistd.o
    0x08015bae   0x00000002   PAD
    0x08015bb0   0x00000c90   Code   RO         1719    .text               jdarith.o
    0x08016840   0x0000066c   Code   RO         1731    .text               jdmaster.o
    0x08016eac   0x00000acc   Code   RO         1743    .text               jdinput.o
    0x08017978   0x00001d48   Code   RO         1755    .text               jdmarker.o
    0x080196c0   0x000017dc   Code   RO         1767    .text               jdhuff.o
    0x0801ae9c   0x000004f4   Code   RO         1781    .text               jdmainct.o
    0x0801b390   0x00000a88   Code   RO         1793    .text               jdcoefct.o
    0x0801be18   0x000002a4   Code   RO         1805    .text               jdpostct.o
    0x0801c0bc   0x00000500   Code   RO         1817    .text               jddctmgr.o
    0x0801c5bc   0x00000522   Code   RO         1833    .text               jidctfst.o
    0x0801cade   0x00000002   PAD
    0x0801cae0   0x00000478   Code   RO         1845    .text               jidctflt.o
    0x0801cf58   0x00006d84   Code   RO         1857    .text               jidctint.o
    0x08023cdc   0x0000039c   Code   RO         1869    .text               jdsample.o
    0x08024078   0x0000096c   Code   RO         1881    .text               jdcolor.o
    0x080249e4   0x00000e40   Code   RO         1893    .text               jquant2.o
    0x08025824   0x000008ec   Code   RO         1905    .text               jquant1.o
    0x08026110   0x00000660   Code   RO         1921    .text               jdmerge.o
    0x08026770   0x00000048   Code   RO         1941    .text               jmemnobs.o
    0x080267b8   0x00000860   Code   RO         1982    .text               bmp.o
    0x08027018   0x00000ea0   Code   RO         2002    .text               gif.o
    0x08027eb8   0x000002c4   Code   RO         2029    .text               piclib.o
    0x0802817c   0x00001270   Code   RO         2055    .text               tjpgd.o
    0x080293ec   0x00000890   Code   RO         2095    .text               os_core.o
    0x08029c7c   0x0000080c   Code   RO         2123    .text               os_flag.o
    0x0802a488   0x000003cc   Code   RO         2143    .text               os_mbox.o
    0x0802a854   0x000005e8   Code   RO         2197    .text               os_q.o
    0x0802ae3c   0x000007c4   Code   RO         2237    .text               os_task.o
    0x0802b600   0x000001b0   Code   RO         2257    .text               os_time.o
    0x0802b7b0   0x000000c8   Code   RO         2289    .text               os_cpu_a.o
    0x0802b878   0x000001c4   Code   RO         2294    .text               os_cpu_c.o
    0x0802ba3c   0x00000826   Code   RO         2324    .text               button.o
    0x0802c262   0x00000002   PAD
    0x0802c264   0x000018d4   Code   RO         2394    .text               gui.o
    0x0802db38   0x0000076c   Code   RO         2516    .text               window.o
    0x0802e2a4   0x00000062   Code   RO         2556    .text               mc_w.l(ldiv.o)
    0x0802e306   0x00000024   Code   RO         2560    .text               mc_w.l(memcpya.o)
    0x0802e32a   0x00000024   Code   RO         2562    .text               mc_w.l(memseta.o)
    0x0802e34e   0x00000018   Code   RO         2564    .text               mc_w.l(strcat.o)
    0x0802e366   0x00000018   Code   RO         2568    .text               mc_w.l(strncpy.o)
    0x0802e37e   0x0000000e   Code   RO         2570    .text               mc_w.l(strlen.o)
    0x0802e38c   0x0000001c   Code   RO         2572    .text               mc_w.l(strcmp.o)
    0x0802e3a8   0x00000012   Code   RO         2574    .text               mc_w.l(strcpy.o)
    0x0802e3ba   0x00000002   PAD
    0x0802e3bc   0x00000038   Code   RO         2839    .text               mc_w.l(__0sscanf.o)
    0x0802e3f4   0x0000014c   Code   RO         2841    .text               mc_w.l(_scanf_int.o)
    0x0802e540   0x000000e0   Code   RO         2843    .text               mc_w.l(_scanf_str.o)
    0x0802e620   0x0000014e   Code   RO         2845    .text               mf_w.l(dadd.o)
    0x0802e76e   0x000000e4   Code   RO         2847    .text               mf_w.l(dmul.o)
    0x0802e852   0x000000de   Code   RO         2849    .text               mf_w.l(ddiv.o)
    0x0802e930   0x00000022   Code   RO         2851    .text               mf_w.l(dflti.o)
    0x0802e952   0x0000001a   Code   RO         2853    .text               mf_w.l(dfltui.o)
    0x0802e96c   0x00000032   Code   RO         2855    .text               mf_w.l(dfixui.o)
    0x0802e99e   0x00000026   Code   RO         2857    .text               mf_w.l(f2d.o)
    0x0802e9c4   0x00000030   Code   RO         2859    .text               mf_w.l(cdcmple.o)
    0x0802e9f4   0x00000030   Code   RO         2861    .text               mf_w.l(cdrcmple.o)
    0x0802ea24   0x00000038   Code   RO         2863    .text               mf_w.l(d2f.o)
    0x0802ea5c   0x0000003e   Code   RO         2865    .text               mf_w.l(setjmp.o)
    0x0802ea9a   0x00000062   Code   RO         2883    .text               mc_w.l(uldiv.o)
    0x0802eafc   0x0000001e   Code   RO         2885    .text               mc_w.l(llshl.o)
    0x0802eb1a   0x00000020   Code   RO         2887    .text               mc_w.l(llushr.o)
    0x0802eb3a   0x00000024   Code   RO         2889    .text               mc_w.l(llsshr.o)
    0x0802eb5e   0x0000001c   Code   RO         2898    .text               mc_w.l(_chval.o)
    0x0802eb7a   0x00000002   PAD
    0x0802eb7c   0x00000028   Code   RO         2900    .text               mc_w.l(scanf_char.o)
    0x0802eba4   0x00000040   Code   RO         2902    .text               mc_w.l(_sgetc.o)
    0x0802ebe4   0x00000000   Code   RO         2904    .text               mc_w.l(iusefp.o)
    0x0802ebe4   0x0000006e   Code   RO         2905    .text               mf_w.l(fepilogue.o)
    0x0802ec52   0x000000ba   Code   RO         2907    .text               mf_w.l(depilogue.o)
    0x0802ed0c   0x000000a2   Code   RO         2909    .text               mf_w.l(dsqrt.o)
    0x0802edae   0x00000002   PAD
    0x0802edb0   0x00000024   Code   RO         2913    .text               mc_w.l(init.o)
    0x0802edd4   0x0000000a   Code   RO         2915    .text               mc_w.l(isspace_c.o)
    0x0802edde   0x00000002   PAD
    0x0802ede0   0x0000032c   Code   RO         2917    .text               mc_w.l(_scanf.o)
    0x0802f10c   0x00000028   Code   RO         2919    .text               mc_w.l(ctype_c.o)
    0x0802f134   0x00000056   Code   RO         2930    .text               mc_w.l(__dczerorl2.o)
    0x0802f18a   0x00000002   PAD
    0x0802f18c   0x00000020   Code   RO         2785    i.__0printf$8       mc_w.l(printf8.o)
    0x0802f1ac   0x00000028   Code   RO         2787    i.__0sprintf$8      mc_w.l(printf8.o)
    0x0802f1d4   0x0000007a   Code   RO         2537    i.__hardfp_sqrt     m_wm.l(sqrt.o)
    0x0802f24e   0x0000000e   Code   RO         2924    i.__scatterload_copy  mc_w.l(handlers.o)
    0x0802f25c   0x00000002   Code   RO         2925    i.__scatterload_null  mc_w.l(handlers.o)
    0x0802f25e   0x0000000e   Code   RO         2926    i.__scatterload_zeroinit  mc_w.l(handlers.o)
    0x0802f26c   0x0000000c   Code   RO         2893    i.__set_errno       mc_w.l(errno.o)
    0x0802f278   0x00000410   Code   RO         2792    i._printf_core      mc_w.l(printf8.o)
    0x0802f688   0x00000024   Code   RO         2793    i._printf_post_padding  mc_w.l(printf8.o)
    0x0802f6ac   0x0000002e   Code   RO         2794    i._printf_pre_padding  mc_w.l(printf8.o)
    0x0802f6da   0x0000000a   Code   RO         2796    i._sputc            mc_w.l(printf8.o)
    0x0802f6e4   0x000017c0   Data   RO          397    .constdata          lcd.o
    0x08030ea4   0x0000006e   Data   RO          599    .constdata          i2s.o
    0x08030f12   0x0000000a   Data   RO          694    .constdata          ft5206.o
    0x08030f1c   0x000000c2   Data   RO          718    .constdata          gt9147.o
    0x08030fde   0x0000000a   Data   RO          742    .constdata          ott2001a.o
    0x08030fe8   0x00000004   Data   RO          766    .constdata          touch.o
    0x08030fec   0x0000001c   Data   RO          932    .constdata          stm32f4xx_fsmc.o
    0x08031008   0x00000024   Data   RO         1102    .constdata          malloc.o
    0x0803102c   0x0000003a   Data   RO         1226    .constdata          ff.o
    0x08031066   0x00000002   PAD
    0x08031068   0x00000070   Data   RO         1247    .constdata          exfuns.o
    0x080310d8   0x000003c0   Data   RO         1298    .constdata          mycc936.o
    0x08031498   0x00000010   Data   RO         1320    .constdata          fontupd.o
    0x080314a8   0x00000010   Data   RO         1495    .constdata          avi.o
    0x080314b8   0x000001c8   Data   RO         1564    .constdata          jaricom.o
    0x08031680   0x000004ec   Data   RO         1619    .constdata          jutils.o
    0x08031b6c   0x00000200   Data   RO         1641    .constdata          jerror.o
    0x08031d6c   0x00000010   Data   RO         1672    .constdata          jmemmgr.o
    0x08031d7c   0x0000036c   Data   RO         1768    .constdata          jdhuff.o
    0x080320e8   0x000000c0   Data   RO         1818    .constdata          jddctmgr.o
    0x080321a8   0x0000010c   Data   RO         1906    .constdata          jquant1.o
    0x080322b4   0x00000028   Data   RO         2003    .constdata          gif.o
    0x080322dc   0x000004c0   Data   RO         2056    .constdata          tjpgd.o
    0x0803279c   0x00000100   Data   RO         2097    .constdata          os_core.o
    0x0803289c   0x0000657c   Data   RO         2396    .constdata          gui.o
    0x08038e18   0x00000040   Data   RO         2920    .constdata          mc_w.l(ctype_c.o)
    0x08038e58   0x00000079   Data   RO          767    .conststring        touch.o
    0x08038ed1   0x00000003   PAD
    0x08038ed4   0x00000028   Data   RO         1129    .conststring        usmart.o
    0x08038efc   0x00000200   Data   RO         1159    .conststring        usmart_config.o
    0x080390fc   0x00000040   Data   RO         1248    .conststring        exfuns.o
    0x0803913c   0x0000005f   Data   RO         1321    .conststring        fontupd.o
    0x0803919b   0x00000001   PAD
    0x0803919c   0x0000001d   Data   RO         1496    .conststring        avi.o
    0x080391b9   0x00000003   PAD
    0x080391bc   0x0000130d   Data   RO         1642    .conststring        jerror.o
    0x0803a4c9   0x00000003   PAD
    0x0803a4cc   0x00000059   Data   RO         2397    .conststring        gui.o
    0x0803a525   0x00000003   PAD
    0x0803a528   0x00000020   Data   RO         2922    Region$$Table       anon$$obj.o


    Execution Region RW_IRAM1 (Base: 0x20000000, Size: 0x0001e1b8, Max: 0x00020000, ABSOLUTE, COMPRESSED[0x00000118])

    Base Addr    Size         Type   Attr      Idx    E Section Name        Object

    0x20000000   0x00000014   Data   RW          134    .data               system_stm32f4xx.o
    0x20000014   0x00000004   Data   RW          161    .data               main.o
    0x20000018   0x00000004   Data   RW          398    .data               lcd.o
    0x2000001c   0x00000001   Data   RW          444    .data               key.o
    0x2000001d   0x00000001   PAD
    0x2000001e   0x00000002   Data   RW          489    .data               w25qxx.o
    0x20000020   0x00000010   Data   RW          520    .data               sdio_sdcard.o
    0x20000030   0x00000008   Data   RW          600    .data               i2s.o
    0x20000038   0x00000074   Data   RW          626    .data               wm8978.o
    0x200000ac   0x00000003   Data   RW          648    .data               timer.o
    0x200000af   0x00000001   Data   RW          695    .data               ft5206.o
    0x200000b0   0x00000001   Data   RW          719    .data               gt9147.o
    0x200000b1   0x00000001   Data   RW          743    .data               ott2001a.o
    0x200000b2   0x00000002   PAD
    0x200000b4   0x00000036   Data   RW          768    .data               touch.o
    0x200000ea   0x00000004   Data   RW          814    .data               delay.o
    0x200000ee   0x00000002   PAD
    0x200000f0   0x00000006   Data   RW          855    .data               usart.o
    0x200000f6   0x00000010   Data   RW          955    .data               stm32f4xx_rcc.o
    0x20000106   0x00000002   PAD
    0x20000108   0x00000024   Data   RW         1103    .data               malloc.o
    0x2000012c   0x0000001c   Data   RW         1130    .data               usmart.o
    0x20000148   0x0000016c   Data   RW         1160    .data               usmart_config.o
    0x200002b4   0x00000002   Data   RW         1201    .data               diskio.o
    0x200002b6   0x00000002   Data   RW         1227    .data               ff.o
    0x200002b8   0x00000014   Data   RW         1249    .data               exfuns.o
    0x200002cc   0x00000008   Data   RW         1435    .data               videoplayer.o
    0x200002d4   0x0000001c   Data   RW         1540    .data               mjpeg.o
    0x200002f0   0x00000001   Data   RW         2004    .data               gif.o
    0x200002f1   0x00000003   PAD
    0x200002f4   0x0000000c   Data   RW         2057    .data               tjpgd.o
    0x20000300   0x00000048   Data   RW         2098    .data               os_core.o
    0x20000348   0x0000001e   Data   RW         2398    .data               gui.o
    0x20000366   0x00000001   Data   RW         2517    .data               window.o
    0x20000367   0x00000001   PAD
    0x20000368   0x00000004   Data   RW         2894    .data               mc_w.l(errno.o)
    0x2000036c   0x00000c00   Zero   RW          160    .bss                main.o
    0x20000f6c   0x0000000e   Zero   RW          396    .bss                lcd.o
    0x20000f7a   0x00001000   Zero   RW          488    .bss                w25qxx.o
    0x20001f7a   0x00000006   PAD
    0x20001f80   0x000002c0   Zero   RW          519    .bss                sdio_sdcard.o
    0x20002240   0x000000c8   Zero   RW          854    .bss                usart.o
    0x20002308   0x00000018   PAD
    0x20002320   0x0001a900   Zero   RW         1101    .bss                malloc.o
    0x2001cc20   0x0000000c   Zero   RW         1225    .bss                ff.o
    0x2001cc2c   0x00000050   Zero   RW         1246    .bss                exfuns.o
    0x2001cc7c   0x00000021   Zero   RW         1319    .bss                fontupd.o
    0x2001cc9d   0x00000003   PAD
    0x2001cca0   0x00000010   Zero   RW         1434    .bss                videoplayer.o
    0x2001ccb0   0x00000028   Zero   RW         1494    .bss                avi.o
    0x2001ccd8   0x0000003c   Zero   RW         2030    .bss                piclib.o
    0x2001cd14   0x00000a80   Zero   RW         2096    .bss                os_core.o
    0x2001d794   0x0000001d   Zero   RW         2395    .bss                gui.o
    0x2001d7b1   0x00000007   PAD
    0x2001d7b8   0x00000a00   Zero   RW          882    STACK               startup_stm32f40_41xxx.o



  Load Region LR$$.ARM.__AT_0x10000000 (Base: 0x10000000, Size: 0x00000000, Max: 0x0000f000, ABSOLUTE)

    Execution Region ER$$.ARM.__AT_0x10000000 (Base: 0x10000000, Size: 0x0000f000, Max: 0x0000f000, ABSOLUTE, UNINIT)

    Base Addr    Size         Type   Attr      Idx    E Section Name        Object

    0x10000000   0x0000f000   Zero   RW         1097    .ARM.__AT_0x10000000  malloc.o



  Load Region LR$$.ARM.__AT_0x1000F000 (Base: 0x1000f000, Size: 0x00000000, Max: 0x00000f00, ABSOLUTE)

    Execution Region ER$$.ARM.__AT_0x1000F000 (Base: 0x1000f000, Size: 0x00000f00, Max: 0x00000f00, ABSOLUTE, UNINIT)

    Base Addr    Size         Type   Attr      Idx    E Section Name        Object

    0x1000f000   0x00000f00   Zero   RW         1098    .ARM.__AT_0x1000F000  malloc.o



  Load Region LR$$.ARM.__AT_0x68000000 (Base: 0x68000000, Size: 0x00000000, Max: 0x000f0000, ABSOLUTE)

    Execution Region ER$$.ARM.__AT_0x68000000 (Base: 0x68000000, Size: 0x000f0000, Max: 0x000f0000, ABSOLUTE, UNINIT)

    Base Addr    Size         Type   Attr      Idx    E Section Name        Object

    0x68000000   0x000f0000   Zero   RW         1099    .ARM.__AT_0x68000000  malloc.o



  Load Region LR$$.ARM.__AT_0x680F0000 (Base: 0x680f0000, Size: 0x00000000, Max: 0x0000f000, ABSOLUTE)

    Execution Region ER$$.ARM.__AT_0x680F0000 (Base: 0x680f0000, Size: 0x0000f000, Max: 0x0000f000, ABSOLUTE, UNINIT)

    Base Addr    Size         Type   Attr      Idx    E Section Name        Object

    0x680f0000   0x0000f000   Zero   RW         1100    .ARM.__AT_0x680F0000  malloc.o


==============================================================================

Image component sizes


      Code (inc. data)   RO Data    RW Data    ZI Data      Debug   Object Name

       378          0          0          0          0       2642   24cxx.o
      1144        292         45          0         40      16135   avi.o
      2144         24          0          0          0       5126   bmp.o
      2086         10          0          0          0       6723   button.o
       596         24          0          0          0       2053   ctiic.o
       296         18          0          4          0       1781   delay.o
       512          8          0          2          0       4206   diskio.o
       408         22        176         20         80       2708   exfuns.o
      2508        718          0          0          0       6920   fattester.o
     12954        136         58          2         12      34730   ff.o
      1504        158        111          0         33       4112   fontupd.o
       812         40         10          1          0       2443   ft5206.o
      3744         24         40          1          0       9938   gif.o
      1096         78        194          1          0       2986   gt9147.o
      6356        124      26069         30         29      23985   gui.o
       824         46        110          8          0       3720   i2s.o
         0          0        456          0          0       4322   jaricom.o
       136          0          0          0          0      14696   jcomapi.o
      1128         22          0          0          0       3473   jdapimin.o
       746          0          0          0          0       2512   jdapistd.o
      3216         34          0          0          0       7558   jdarith.o
      2696         28          0          0          0       8706   jdcoefct.o
      2412         84          0          0          0       7594   jdcolor.o
      1280        158        192          0          0       3272   jddctmgr.o
      6108         92        876          0          0      16181   jdhuff.o
      2764         46          0          0          0       4077   jdinput.o
      1268         16          0          0          0       4322   jdmainct.o
      7496        122          0          0          0      15913   jdmarker.o
      1644         18          0          0          0       3768   jdmaster.o
      1632         38          0          0          0       4989   jdmerge.o
       676         18          0          0          0       3170   jdpostct.o
       924         30          0          0          0       4406   jdsample.o
       360         30       5389          0          0      13230   jerror.o
      1144         20          0          0          0       2066   jidctflt.o
      1314          0          0          0          0       2962   jidctfst.o
     28036        146          0          0          0      38842   jidctint.o
      2740         78         16          0          0      23868   jmemmgr.o
        72          0          0          0          0       3087   jmemnobs.o
      2284         44        268          0          0       8920   jquant1.o
      3648         30          0          0          0      11792   jquant2.o
       116          0       1260          0          0      15631   jutils.o
       260         12          0          1          0        856   key.o
     20888        290       6080          4         14      26577   lcd.o
       524         60          0          4       3072     247366   main.o
       608         18         36         36    1218560       5009   malloc.o
       224         20          0          0          0       1797   misc.o
       760        110          0         28          0       3389   mjpeg.o
       204         12        960          0          0       1625   mycc936.o
       604         14          0          0          0       1888   myiic.o
      2192        218        256         72       2688      15067   os_core.o
       200         32          0          0          0        316   os_cpu_a.o
       452          6          0          0          0      10582   os_cpu_c.o
      2060         42          0          0          0       6880   os_flag.o
       972         16          0          0          0       4106   os_mbox.o
      1512         30          0          0          0       5509   os_q.o
      1988         70          0          0          0       7545   os_task.o
       432         30          0          0          0       1794   os_time.o
       904         66         10          1          0       2643   ott2001a.o
       708         34          0          0         60       4631   piclib.o
      7520        282          0         16        704      24925   sdio_sdcard.o
       280          8          0          0          0       1049   spi.o
       796         20          0          0          0       2301   sram.o
        36          8        392          0       2560        820   startup_stm32f40_41xxx.o
       936         32          0          0          0       6273   stm32f4xx_dma.o
      1480         18         28          0          0       5586   stm32f4xx_fsmc.o
       660         44          0          0          0       4073   stm32f4xx_gpio.o
        22          0          0          0          0      91151   stm32f4xx_it.o
      1628         52          0         16          0      12852   stm32f4xx_rcc.o
       476         16          0          0          0       7368   stm32f4xx_sdio.o
      1152         36          0          0          0       6825   stm32f4xx_spi.o
      3234         60          0          0          0      22280   stm32f4xx_tim.o
      1108         34          0          0          0       7776   stm32f4xx_usart.o
        16          0          0          0          0        480   sys.o
       528         46          0         20          0       1747   system_stm32f4xx.o
       724         16          0          0          0       2952   text.o
       272         28          0          3          0       1478   timer.o
      4720         70       1216         12          0      16855   tjpgd.o
      4272        242        125         54          0       6911   touch.o
       336         16          0          6        200       3278   usart.o
      3124       1286         40         28          0       4334   usmart.o
         0          0        512        364          0       1472   usmart_config.o
      1320         12          0          0          0       5145   usmart_str.o
      3472        390          0          8         16       7654   videoplayer.o
       900         32          0          2       4096       5541   w25qxx.o
      1900         32          0          1          0       4533   window.o
      1060         12          0        116          0       5469   wm8978.o

    ----------------------------------------------------------------------
    188680       6648      44972        872    1232204     968273   Object Totals
         0          0         32          0          0          0   (incl. Generated)
        14          0         15         11         40          0   (incl. Padding)

    ----------------------------------------------------------------------

      Code (inc. data)   RO Data    RW Data    ZI Data      Debug   Library Member Name

       122          0          0          0          0        148   sqrt.o
        56          8          0          0          0         84   __0sscanf.o
        86          0          0          0          0          0   __dczerorl2.o
        28          0          0          0          0         68   _chval.o
       812          4          0          0          0        112   _scanf.o
       332          0          0          0          0         96   _scanf_int.o
       224          0          0          0          0         96   _scanf_str.o
        64          0          0          0          0         84   _sgetc.o
        40          6         64          0          0         68   ctype_c.o
         0          0          0          0          0          0   entry.o
         0          0          0          0          0          0   entry10a.o
         0          0          0          0          0          0   entry11a.o
         8          4          0          0          0          0   entry2.o
         4          0          0          0          0          0   entry5.o
         0          0          0          0          0          0   entry7b.o
         0          0          0          0          0          0   entry8b.o
         8          4          0          0          0          0   entry9a.o
        12          6          0          4          0         68   errno.o
        30          0          0          0          0          0   handlers.o
        36          8          0          0          0         68   init.o
        10          0          0          0          0         68   isspace_c.o
         0          0          0          0          0          0   iusefp.o
        98          0          0          0          0         84   ldiv.o
        30          0          0          0          0         68   llshl.o
        36          0          0          0          0         68   llsshr.o
        32          0          0          0          0         68   llushr.o
        36          0          0          0          0         68   memcpya.o
        36          0          0          0          0        108   memseta.o
      1204         60          0          0          0        504   printf8.o
        40          8          0          0          0         84   scanf_char.o
        24          0          0          0          0         68   strcat.o
        28          0          0          0          0         76   strcmp.o
        18          0          0          0          0         68   strcpy.o
        14          0          0          0          0         68   strlen.o
        24          0          0          0          0         76   strncpy.o
        98          0          0          0          0         92   uldiv.o
        48          0          0          0          0         68   cdcmple.o
        48          0          0          0          0         68   cdrcmple.o
        56          0          0          0          0         88   d2f.o
       334          0          0          0          0        148   dadd.o
       222          0          0          0          0        100   ddiv.o
       186          0          0          0          0        176   depilogue.o
        50          0          0          0          0         76   dfixui.o
        34          0          0          0          0         76   dflti.o
        26          0          0          0          0         76   dfltui.o
       228          0          0          0          0         96   dmul.o
       162          0          0          0          0        100   dsqrt.o
        38          0          0          0          0         68   f2d.o
       110          0          0          0          0        168   fepilogue.o
        62          0          0          0          0         96   setjmp.o

    ----------------------------------------------------------------------
      5204        108         64          4          0       3864   Library Totals
        10          0          0          0          0          0   (incl. Padding)

    ----------------------------------------------------------------------

      Code (inc. data)   RO Data    RW Data    ZI Data      Debug   Library Name

       122          0          0          0          0        148   m_wm.l
      3468        108         64          4          0       2312   mc_w.l
      1604          0          0          0          0       1404   mf_w.l

    ----------------------------------------------------------------------
      5204        108         64          4          0       3864   Library Totals

    ----------------------------------------------------------------------

==============================================================================


      Code (inc. data)   RO Data    RW Data    ZI Data      Debug   

    193884       6756      45036        876    1232204     955541   Grand Totals
    193884       6756      45036        280    1232204     955541   ELF Image Totals (compressed)
    193884       6756      45036        280          0          0   ROM Totals

==============================================================================

    Total RO  Size (Code + RO Data)               238920 ( 233.32kB)
    Total RW  Size (RW Data + ZI Data)           1233080 (1204.18kB)
    Total ROM Size (Code + RO Data + RW Data)     239200 ( 233.59kB)

==============================================================================

